ARM GAS  /var/folders/6_/psd2b8g56p7696hhrr4ztjs00000gn/T//ccmmdqDi.s 			page 1


   1              		.cpu cortex-m7
   2              		.arch armv7e-m
   3              		.fpu fpv5-d16
   4              		.eabi_attribute 28, 1
   5              		.eabi_attribute 20, 1
   6              		.eabi_attribute 21, 1
   7              		.eabi_attribute 23, 3
   8              		.eabi_attribute 24, 1
   9              		.eabi_attribute 25, 1
  10              		.eabi_attribute 26, 1
  11              		.eabi_attribute 30, 2
  12              		.eabi_attribute 34, 1
  13              		.eabi_attribute 18, 4
  14              		.file	"arm_cfft_radix4_f32.c"
  15              		.text
  16              	.Ltext0:
  17              		.cfi_sections	.debug_frame
  18              		.file 1 "../libDaisy/Drivers/CMSIS/DSP/Source/TransformFunctions/arm_cfft_radix4_f32.c"
  19              		.section	.text.arm_radix4_butterfly_f32,"ax",%progbits
  20              		.align	1
  21              		.p2align 2,,3
  22              		.global	arm_radix4_butterfly_f32
  23              		.syntax unified
  24              		.thumb
  25              		.thumb_func
  27              	arm_radix4_butterfly_f32:
  28              	.LVL0:
  29              	.LFB354:
   1:../libDaisy/Drivers/CMSIS/DSP/Source/TransformFunctions/arm_cfft_radix4_f32.c **** /* ----------------------------------------------------------------------
   2:../libDaisy/Drivers/CMSIS/DSP/Source/TransformFunctions/arm_cfft_radix4_f32.c ****  * Project:      CMSIS DSP Library
   3:../libDaisy/Drivers/CMSIS/DSP/Source/TransformFunctions/arm_cfft_radix4_f32.c ****  * Title:        arm_cfft_radix4_f32.c
   4:../libDaisy/Drivers/CMSIS/DSP/Source/TransformFunctions/arm_cfft_radix4_f32.c ****  * Description:  Radix-4 Decimation in Frequency CFFT & CIFFT Floating point processing function
   5:../libDaisy/Drivers/CMSIS/DSP/Source/TransformFunctions/arm_cfft_radix4_f32.c ****  *
   6:../libDaisy/Drivers/CMSIS/DSP/Source/TransformFunctions/arm_cfft_radix4_f32.c ****  * $Date:        27. January 2017
   7:../libDaisy/Drivers/CMSIS/DSP/Source/TransformFunctions/arm_cfft_radix4_f32.c ****  * $Revision:    V.1.5.1
   8:../libDaisy/Drivers/CMSIS/DSP/Source/TransformFunctions/arm_cfft_radix4_f32.c ****  *
   9:../libDaisy/Drivers/CMSIS/DSP/Source/TransformFunctions/arm_cfft_radix4_f32.c ****  * Target Processor: Cortex-M cores
  10:../libDaisy/Drivers/CMSIS/DSP/Source/TransformFunctions/arm_cfft_radix4_f32.c ****  * -------------------------------------------------------------------- */
  11:../libDaisy/Drivers/CMSIS/DSP/Source/TransformFunctions/arm_cfft_radix4_f32.c **** /*
  12:../libDaisy/Drivers/CMSIS/DSP/Source/TransformFunctions/arm_cfft_radix4_f32.c ****  * Copyright (C) 2010-2017 ARM Limited or its affiliates. All rights reserved.
  13:../libDaisy/Drivers/CMSIS/DSP/Source/TransformFunctions/arm_cfft_radix4_f32.c ****  *
  14:../libDaisy/Drivers/CMSIS/DSP/Source/TransformFunctions/arm_cfft_radix4_f32.c ****  * SPDX-License-Identifier: Apache-2.0
  15:../libDaisy/Drivers/CMSIS/DSP/Source/TransformFunctions/arm_cfft_radix4_f32.c ****  *
  16:../libDaisy/Drivers/CMSIS/DSP/Source/TransformFunctions/arm_cfft_radix4_f32.c ****  * Licensed under the Apache License, Version 2.0 (the License); you may
  17:../libDaisy/Drivers/CMSIS/DSP/Source/TransformFunctions/arm_cfft_radix4_f32.c ****  * not use this file except in compliance with the License.
  18:../libDaisy/Drivers/CMSIS/DSP/Source/TransformFunctions/arm_cfft_radix4_f32.c ****  * You may obtain a copy of the License at
  19:../libDaisy/Drivers/CMSIS/DSP/Source/TransformFunctions/arm_cfft_radix4_f32.c ****  *
  20:../libDaisy/Drivers/CMSIS/DSP/Source/TransformFunctions/arm_cfft_radix4_f32.c ****  * www.apache.org/licenses/LICENSE-2.0
  21:../libDaisy/Drivers/CMSIS/DSP/Source/TransformFunctions/arm_cfft_radix4_f32.c ****  *
  22:../libDaisy/Drivers/CMSIS/DSP/Source/TransformFunctions/arm_cfft_radix4_f32.c ****  * Unless required by applicable law or agreed to in writing, software
  23:../libDaisy/Drivers/CMSIS/DSP/Source/TransformFunctions/arm_cfft_radix4_f32.c ****  * distributed under the License is distributed on an AS IS BASIS, WITHOUT
  24:../libDaisy/Drivers/CMSIS/DSP/Source/TransformFunctions/arm_cfft_radix4_f32.c ****  * WARRANTIES OR CONDITIONS OF ANY KIND, either express or implied.
  25:../libDaisy/Drivers/CMSIS/DSP/Source/TransformFunctions/arm_cfft_radix4_f32.c ****  * See the License for the specific language governing permissions and
  26:../libDaisy/Drivers/CMSIS/DSP/Source/TransformFunctions/arm_cfft_radix4_f32.c ****  * limitations under the License.
  27:../libDaisy/Drivers/CMSIS/DSP/Source/TransformFunctions/arm_cfft_radix4_f32.c ****  */
  28:../libDaisy/Drivers/CMSIS/DSP/Source/TransformFunctions/arm_cfft_radix4_f32.c **** 
  29:../libDaisy/Drivers/CMSIS/DSP/Source/TransformFunctions/arm_cfft_radix4_f32.c **** #include "arm_math.h"
ARM GAS  /var/folders/6_/psd2b8g56p7696hhrr4ztjs00000gn/T//ccmmdqDi.s 			page 2


  30:../libDaisy/Drivers/CMSIS/DSP/Source/TransformFunctions/arm_cfft_radix4_f32.c **** 
  31:../libDaisy/Drivers/CMSIS/DSP/Source/TransformFunctions/arm_cfft_radix4_f32.c **** extern void arm_bitreversal_f32(
  32:../libDaisy/Drivers/CMSIS/DSP/Source/TransformFunctions/arm_cfft_radix4_f32.c **** float32_t * pSrc,
  33:../libDaisy/Drivers/CMSIS/DSP/Source/TransformFunctions/arm_cfft_radix4_f32.c **** uint16_t fftSize,
  34:../libDaisy/Drivers/CMSIS/DSP/Source/TransformFunctions/arm_cfft_radix4_f32.c **** uint16_t bitRevFactor,
  35:../libDaisy/Drivers/CMSIS/DSP/Source/TransformFunctions/arm_cfft_radix4_f32.c **** uint16_t * pBitRevTab);
  36:../libDaisy/Drivers/CMSIS/DSP/Source/TransformFunctions/arm_cfft_radix4_f32.c **** 
  37:../libDaisy/Drivers/CMSIS/DSP/Source/TransformFunctions/arm_cfft_radix4_f32.c **** void arm_radix4_butterfly_f32(
  38:../libDaisy/Drivers/CMSIS/DSP/Source/TransformFunctions/arm_cfft_radix4_f32.c **** float32_t * pSrc,
  39:../libDaisy/Drivers/CMSIS/DSP/Source/TransformFunctions/arm_cfft_radix4_f32.c **** uint16_t fftLen,
  40:../libDaisy/Drivers/CMSIS/DSP/Source/TransformFunctions/arm_cfft_radix4_f32.c **** float32_t * pCoef,
  41:../libDaisy/Drivers/CMSIS/DSP/Source/TransformFunctions/arm_cfft_radix4_f32.c **** uint16_t twidCoefModifier);
  42:../libDaisy/Drivers/CMSIS/DSP/Source/TransformFunctions/arm_cfft_radix4_f32.c **** 
  43:../libDaisy/Drivers/CMSIS/DSP/Source/TransformFunctions/arm_cfft_radix4_f32.c **** void arm_radix4_butterfly_inverse_f32(
  44:../libDaisy/Drivers/CMSIS/DSP/Source/TransformFunctions/arm_cfft_radix4_f32.c **** float32_t * pSrc,
  45:../libDaisy/Drivers/CMSIS/DSP/Source/TransformFunctions/arm_cfft_radix4_f32.c **** uint16_t fftLen,
  46:../libDaisy/Drivers/CMSIS/DSP/Source/TransformFunctions/arm_cfft_radix4_f32.c **** float32_t * pCoef,
  47:../libDaisy/Drivers/CMSIS/DSP/Source/TransformFunctions/arm_cfft_radix4_f32.c **** uint16_t twidCoefModifier,
  48:../libDaisy/Drivers/CMSIS/DSP/Source/TransformFunctions/arm_cfft_radix4_f32.c **** float32_t onebyfftLen);
  49:../libDaisy/Drivers/CMSIS/DSP/Source/TransformFunctions/arm_cfft_radix4_f32.c **** 
  50:../libDaisy/Drivers/CMSIS/DSP/Source/TransformFunctions/arm_cfft_radix4_f32.c **** 
  51:../libDaisy/Drivers/CMSIS/DSP/Source/TransformFunctions/arm_cfft_radix4_f32.c **** /**
  52:../libDaisy/Drivers/CMSIS/DSP/Source/TransformFunctions/arm_cfft_radix4_f32.c **** * @ingroup groupTransforms
  53:../libDaisy/Drivers/CMSIS/DSP/Source/TransformFunctions/arm_cfft_radix4_f32.c **** */
  54:../libDaisy/Drivers/CMSIS/DSP/Source/TransformFunctions/arm_cfft_radix4_f32.c **** 
  55:../libDaisy/Drivers/CMSIS/DSP/Source/TransformFunctions/arm_cfft_radix4_f32.c **** /**
  56:../libDaisy/Drivers/CMSIS/DSP/Source/TransformFunctions/arm_cfft_radix4_f32.c **** * @addtogroup ComplexFFT
  57:../libDaisy/Drivers/CMSIS/DSP/Source/TransformFunctions/arm_cfft_radix4_f32.c **** * @{
  58:../libDaisy/Drivers/CMSIS/DSP/Source/TransformFunctions/arm_cfft_radix4_f32.c **** */
  59:../libDaisy/Drivers/CMSIS/DSP/Source/TransformFunctions/arm_cfft_radix4_f32.c **** 
  60:../libDaisy/Drivers/CMSIS/DSP/Source/TransformFunctions/arm_cfft_radix4_f32.c **** /**
  61:../libDaisy/Drivers/CMSIS/DSP/Source/TransformFunctions/arm_cfft_radix4_f32.c **** * @details
  62:../libDaisy/Drivers/CMSIS/DSP/Source/TransformFunctions/arm_cfft_radix4_f32.c **** * @brief Processing function for the floating-point Radix-4 CFFT/CIFFT.
  63:../libDaisy/Drivers/CMSIS/DSP/Source/TransformFunctions/arm_cfft_radix4_f32.c **** * @deprecated Do not use this function.  It has been superseded by \ref arm_cfft_f32 and will be re
  64:../libDaisy/Drivers/CMSIS/DSP/Source/TransformFunctions/arm_cfft_radix4_f32.c **** * in the future.
  65:../libDaisy/Drivers/CMSIS/DSP/Source/TransformFunctions/arm_cfft_radix4_f32.c **** * @param[in]      *S    points to an instance of the floating-point Radix-4 CFFT/CIFFT structure.
  66:../libDaisy/Drivers/CMSIS/DSP/Source/TransformFunctions/arm_cfft_radix4_f32.c **** * @param[in, out] *pSrc points to the complex data buffer of size <code>2*fftLen</code>. Processing
  67:../libDaisy/Drivers/CMSIS/DSP/Source/TransformFunctions/arm_cfft_radix4_f32.c **** * @return none.
  68:../libDaisy/Drivers/CMSIS/DSP/Source/TransformFunctions/arm_cfft_radix4_f32.c **** */
  69:../libDaisy/Drivers/CMSIS/DSP/Source/TransformFunctions/arm_cfft_radix4_f32.c **** 
  70:../libDaisy/Drivers/CMSIS/DSP/Source/TransformFunctions/arm_cfft_radix4_f32.c **** void arm_cfft_radix4_f32(
  71:../libDaisy/Drivers/CMSIS/DSP/Source/TransformFunctions/arm_cfft_radix4_f32.c ****   const arm_cfft_radix4_instance_f32 * S,
  72:../libDaisy/Drivers/CMSIS/DSP/Source/TransformFunctions/arm_cfft_radix4_f32.c ****   float32_t * pSrc)
  73:../libDaisy/Drivers/CMSIS/DSP/Source/TransformFunctions/arm_cfft_radix4_f32.c **** {
  74:../libDaisy/Drivers/CMSIS/DSP/Source/TransformFunctions/arm_cfft_radix4_f32.c ****    if (S->ifftFlag == 1u)
  75:../libDaisy/Drivers/CMSIS/DSP/Source/TransformFunctions/arm_cfft_radix4_f32.c ****    {
  76:../libDaisy/Drivers/CMSIS/DSP/Source/TransformFunctions/arm_cfft_radix4_f32.c ****       /*  Complex IFFT radix-4  */
  77:../libDaisy/Drivers/CMSIS/DSP/Source/TransformFunctions/arm_cfft_radix4_f32.c ****       arm_radix4_butterfly_inverse_f32(pSrc, S->fftLen, S->pTwiddle, S->twidCoefModifier, S->onebyf
  78:../libDaisy/Drivers/CMSIS/DSP/Source/TransformFunctions/arm_cfft_radix4_f32.c ****    }
  79:../libDaisy/Drivers/CMSIS/DSP/Source/TransformFunctions/arm_cfft_radix4_f32.c ****    else
  80:../libDaisy/Drivers/CMSIS/DSP/Source/TransformFunctions/arm_cfft_radix4_f32.c ****    {
  81:../libDaisy/Drivers/CMSIS/DSP/Source/TransformFunctions/arm_cfft_radix4_f32.c ****       /*  Complex FFT radix-4  */
  82:../libDaisy/Drivers/CMSIS/DSP/Source/TransformFunctions/arm_cfft_radix4_f32.c ****       arm_radix4_butterfly_f32(pSrc, S->fftLen, S->pTwiddle, S->twidCoefModifier);
  83:../libDaisy/Drivers/CMSIS/DSP/Source/TransformFunctions/arm_cfft_radix4_f32.c ****    }
  84:../libDaisy/Drivers/CMSIS/DSP/Source/TransformFunctions/arm_cfft_radix4_f32.c **** 
  85:../libDaisy/Drivers/CMSIS/DSP/Source/TransformFunctions/arm_cfft_radix4_f32.c ****    if (S->bitReverseFlag == 1u)
  86:../libDaisy/Drivers/CMSIS/DSP/Source/TransformFunctions/arm_cfft_radix4_f32.c ****    {
ARM GAS  /var/folders/6_/psd2b8g56p7696hhrr4ztjs00000gn/T//ccmmdqDi.s 			page 3


  87:../libDaisy/Drivers/CMSIS/DSP/Source/TransformFunctions/arm_cfft_radix4_f32.c ****       /*  Bit Reversal */
  88:../libDaisy/Drivers/CMSIS/DSP/Source/TransformFunctions/arm_cfft_radix4_f32.c ****       arm_bitreversal_f32(pSrc, S->fftLen, S->bitRevFactor, S->pBitRevTable);
  89:../libDaisy/Drivers/CMSIS/DSP/Source/TransformFunctions/arm_cfft_radix4_f32.c ****    }
  90:../libDaisy/Drivers/CMSIS/DSP/Source/TransformFunctions/arm_cfft_radix4_f32.c **** 
  91:../libDaisy/Drivers/CMSIS/DSP/Source/TransformFunctions/arm_cfft_radix4_f32.c **** }
  92:../libDaisy/Drivers/CMSIS/DSP/Source/TransformFunctions/arm_cfft_radix4_f32.c **** 
  93:../libDaisy/Drivers/CMSIS/DSP/Source/TransformFunctions/arm_cfft_radix4_f32.c **** /**
  94:../libDaisy/Drivers/CMSIS/DSP/Source/TransformFunctions/arm_cfft_radix4_f32.c **** * @} end of ComplexFFT group
  95:../libDaisy/Drivers/CMSIS/DSP/Source/TransformFunctions/arm_cfft_radix4_f32.c **** */
  96:../libDaisy/Drivers/CMSIS/DSP/Source/TransformFunctions/arm_cfft_radix4_f32.c **** 
  97:../libDaisy/Drivers/CMSIS/DSP/Source/TransformFunctions/arm_cfft_radix4_f32.c **** /* ----------------------------------------------------------------------
  98:../libDaisy/Drivers/CMSIS/DSP/Source/TransformFunctions/arm_cfft_radix4_f32.c ****  * Internal helper function used by the FFTs
  99:../libDaisy/Drivers/CMSIS/DSP/Source/TransformFunctions/arm_cfft_radix4_f32.c ****  * ---------------------------------------------------------------------- */
 100:../libDaisy/Drivers/CMSIS/DSP/Source/TransformFunctions/arm_cfft_radix4_f32.c **** 
 101:../libDaisy/Drivers/CMSIS/DSP/Source/TransformFunctions/arm_cfft_radix4_f32.c **** /*
 102:../libDaisy/Drivers/CMSIS/DSP/Source/TransformFunctions/arm_cfft_radix4_f32.c **** * @brief  Core function for the floating-point CFFT butterfly process.
 103:../libDaisy/Drivers/CMSIS/DSP/Source/TransformFunctions/arm_cfft_radix4_f32.c **** * @param[in, out] *pSrc            points to the in-place buffer of floating-point data type.
 104:../libDaisy/Drivers/CMSIS/DSP/Source/TransformFunctions/arm_cfft_radix4_f32.c **** * @param[in]      fftLen           length of the FFT.
 105:../libDaisy/Drivers/CMSIS/DSP/Source/TransformFunctions/arm_cfft_radix4_f32.c **** * @param[in]      *pCoef           points to the twiddle coefficient buffer.
 106:../libDaisy/Drivers/CMSIS/DSP/Source/TransformFunctions/arm_cfft_radix4_f32.c **** * @param[in]      twidCoefModifier twiddle coefficient modifier that supports different size FFTs w
 107:../libDaisy/Drivers/CMSIS/DSP/Source/TransformFunctions/arm_cfft_radix4_f32.c **** * @return none.
 108:../libDaisy/Drivers/CMSIS/DSP/Source/TransformFunctions/arm_cfft_radix4_f32.c **** */
 109:../libDaisy/Drivers/CMSIS/DSP/Source/TransformFunctions/arm_cfft_radix4_f32.c **** 
 110:../libDaisy/Drivers/CMSIS/DSP/Source/TransformFunctions/arm_cfft_radix4_f32.c **** void arm_radix4_butterfly_f32(
 111:../libDaisy/Drivers/CMSIS/DSP/Source/TransformFunctions/arm_cfft_radix4_f32.c **** float32_t * pSrc,
 112:../libDaisy/Drivers/CMSIS/DSP/Source/TransformFunctions/arm_cfft_radix4_f32.c **** uint16_t fftLen,
 113:../libDaisy/Drivers/CMSIS/DSP/Source/TransformFunctions/arm_cfft_radix4_f32.c **** float32_t * pCoef,
 114:../libDaisy/Drivers/CMSIS/DSP/Source/TransformFunctions/arm_cfft_radix4_f32.c **** uint16_t twidCoefModifier)
 115:../libDaisy/Drivers/CMSIS/DSP/Source/TransformFunctions/arm_cfft_radix4_f32.c **** {
  30              		.loc 1 115 1 view -0
  31              		.cfi_startproc
  32              		@ args = 0, pretend = 0, frame = 40
  33              		@ frame_needed = 0, uses_anonymous_args = 0
 116:../libDaisy/Drivers/CMSIS/DSP/Source/TransformFunctions/arm_cfft_radix4_f32.c **** 
 117:../libDaisy/Drivers/CMSIS/DSP/Source/TransformFunctions/arm_cfft_radix4_f32.c ****    float32_t co1, co2, co3, si1, si2, si3;
  34              		.loc 1 117 4 view .LVU1
 118:../libDaisy/Drivers/CMSIS/DSP/Source/TransformFunctions/arm_cfft_radix4_f32.c ****    uint32_t ia1, ia2, ia3;
  35              		.loc 1 118 4 view .LVU2
 119:../libDaisy/Drivers/CMSIS/DSP/Source/TransformFunctions/arm_cfft_radix4_f32.c ****    uint32_t i0, i1, i2, i3;
  36              		.loc 1 119 4 view .LVU3
 120:../libDaisy/Drivers/CMSIS/DSP/Source/TransformFunctions/arm_cfft_radix4_f32.c ****    uint32_t n1, n2, j, k;
  37              		.loc 1 120 4 view .LVU4
 121:../libDaisy/Drivers/CMSIS/DSP/Source/TransformFunctions/arm_cfft_radix4_f32.c **** 
 122:../libDaisy/Drivers/CMSIS/DSP/Source/TransformFunctions/arm_cfft_radix4_f32.c **** #if defined (ARM_MATH_DSP)
 123:../libDaisy/Drivers/CMSIS/DSP/Source/TransformFunctions/arm_cfft_radix4_f32.c **** 
 124:../libDaisy/Drivers/CMSIS/DSP/Source/TransformFunctions/arm_cfft_radix4_f32.c ****    /* Run the below code for Cortex-M4 and Cortex-M3 */
 125:../libDaisy/Drivers/CMSIS/DSP/Source/TransformFunctions/arm_cfft_radix4_f32.c **** 
 126:../libDaisy/Drivers/CMSIS/DSP/Source/TransformFunctions/arm_cfft_radix4_f32.c ****    float32_t xaIn, yaIn, xbIn, ybIn, xcIn, ycIn, xdIn, ydIn;
  38              		.loc 1 126 4 view .LVU5
 127:../libDaisy/Drivers/CMSIS/DSP/Source/TransformFunctions/arm_cfft_radix4_f32.c ****    float32_t Xaplusc, Xbplusd, Yaplusc, Ybplusd, Xaminusc, Xbminusd, Yaminusc,
  39              		.loc 1 127 4 view .LVU6
 128:../libDaisy/Drivers/CMSIS/DSP/Source/TransformFunctions/arm_cfft_radix4_f32.c ****    Ybminusd;
 129:../libDaisy/Drivers/CMSIS/DSP/Source/TransformFunctions/arm_cfft_radix4_f32.c ****    float32_t Xb12C_out, Yb12C_out, Xc12C_out, Yc12C_out, Xd12C_out, Yd12C_out;
  40              		.loc 1 129 4 view .LVU7
 130:../libDaisy/Drivers/CMSIS/DSP/Source/TransformFunctions/arm_cfft_radix4_f32.c ****    float32_t Xb12_out, Yb12_out, Xc12_out, Yc12_out, Xd12_out, Yd12_out;
  41              		.loc 1 130 4 view .LVU8
 131:../libDaisy/Drivers/CMSIS/DSP/Source/TransformFunctions/arm_cfft_radix4_f32.c ****    float32_t *ptr1;
ARM GAS  /var/folders/6_/psd2b8g56p7696hhrr4ztjs00000gn/T//ccmmdqDi.s 			page 4


  42              		.loc 1 131 4 view .LVU9
 132:../libDaisy/Drivers/CMSIS/DSP/Source/TransformFunctions/arm_cfft_radix4_f32.c ****    float32_t p0,p1,p2,p3,p4,p5;
  43              		.loc 1 132 4 view .LVU10
 133:../libDaisy/Drivers/CMSIS/DSP/Source/TransformFunctions/arm_cfft_radix4_f32.c ****    float32_t a0,a1,a2,a3,a4,a5,a6,a7;
  44              		.loc 1 133 4 view .LVU11
 134:../libDaisy/Drivers/CMSIS/DSP/Source/TransformFunctions/arm_cfft_radix4_f32.c **** 
 135:../libDaisy/Drivers/CMSIS/DSP/Source/TransformFunctions/arm_cfft_radix4_f32.c ****    /*  Initializations for the first stage */
 136:../libDaisy/Drivers/CMSIS/DSP/Source/TransformFunctions/arm_cfft_radix4_f32.c ****    n2 = fftLen;
  45              		.loc 1 136 4 view .LVU12
 115:../libDaisy/Drivers/CMSIS/DSP/Source/TransformFunctions/arm_cfft_radix4_f32.c **** 
  46              		.loc 1 115 1 is_stmt 0 view .LVU13
  47 0000 2DE9F04F 		push	{r4, r5, r6, r7, r8, r9, r10, fp, lr}
  48              		.cfi_def_cfa_offset 36
  49              		.cfi_offset 4, -36
  50              		.cfi_offset 5, -32
  51              		.cfi_offset 6, -28
  52              		.cfi_offset 7, -24
  53              		.cfi_offset 8, -20
  54              		.cfi_offset 9, -16
  55              		.cfi_offset 10, -12
  56              		.cfi_offset 11, -8
  57              		.cfi_offset 14, -4
 137:../libDaisy/Drivers/CMSIS/DSP/Source/TransformFunctions/arm_cfft_radix4_f32.c ****    n1 = n2;
 138:../libDaisy/Drivers/CMSIS/DSP/Source/TransformFunctions/arm_cfft_radix4_f32.c **** 
 139:../libDaisy/Drivers/CMSIS/DSP/Source/TransformFunctions/arm_cfft_radix4_f32.c ****    /* n2 = fftLen/4 */
 140:../libDaisy/Drivers/CMSIS/DSP/Source/TransformFunctions/arm_cfft_radix4_f32.c ****    n2 >>= 2u;
  58              		.loc 1 140 7 view .LVU14
  59 0004 4FEA910A 		lsr	r10, r1, #2
 115:../libDaisy/Drivers/CMSIS/DSP/Source/TransformFunctions/arm_cfft_radix4_f32.c **** 
  60              		.loc 1 115 1 view .LVU15
  61 0008 8446     		mov	ip, r0
  62 000a 8B46     		mov	fp, r1
  63              	.LVL1:
 137:../libDaisy/Drivers/CMSIS/DSP/Source/TransformFunctions/arm_cfft_radix4_f32.c ****    n1 = n2;
  64              		.loc 1 137 4 is_stmt 1 view .LVU16
  65              		.loc 1 140 4 view .LVU17
  66 000c 111D     		adds	r1, r2, #4
  67              	.LVL2:
  68              		.loc 1 140 4 is_stmt 0 view .LVU18
  69 000e 00EBCA08 		add	r8, r0, r10, lsl #3
 141:../libDaisy/Drivers/CMSIS/DSP/Source/TransformFunctions/arm_cfft_radix4_f32.c ****    i0 = 0u;
 142:../libDaisy/Drivers/CMSIS/DSP/Source/TransformFunctions/arm_cfft_radix4_f32.c ****    ia1 = 0u;
 143:../libDaisy/Drivers/CMSIS/DSP/Source/TransformFunctions/arm_cfft_radix4_f32.c **** 
 144:../libDaisy/Drivers/CMSIS/DSP/Source/TransformFunctions/arm_cfft_radix4_f32.c ****    j = n2;
 145:../libDaisy/Drivers/CMSIS/DSP/Source/TransformFunctions/arm_cfft_radix4_f32.c **** 
 146:../libDaisy/Drivers/CMSIS/DSP/Source/TransformFunctions/arm_cfft_radix4_f32.c ****    /*  Calculation of first stage */
 147:../libDaisy/Drivers/CMSIS/DSP/Source/TransformFunctions/arm_cfft_radix4_f32.c ****    do
 148:../libDaisy/Drivers/CMSIS/DSP/Source/TransformFunctions/arm_cfft_radix4_f32.c ****    {
 149:../libDaisy/Drivers/CMSIS/DSP/Source/TransformFunctions/arm_cfft_radix4_f32.c ****       /*  index calculation for the input as, */
 150:../libDaisy/Drivers/CMSIS/DSP/Source/TransformFunctions/arm_cfft_radix4_f32.c ****       /*  pSrc[i0 + 0], pSrc[i0 + fftLen/4], pSrc[i0 + fftLen/2], pSrc[i0 + 3fftLen/4] */
 151:../libDaisy/Drivers/CMSIS/DSP/Source/TransformFunctions/arm_cfft_radix4_f32.c ****       i1 = i0 + n2;
 152:../libDaisy/Drivers/CMSIS/DSP/Source/TransformFunctions/arm_cfft_radix4_f32.c ****       i2 = i1 + n2;
 153:../libDaisy/Drivers/CMSIS/DSP/Source/TransformFunctions/arm_cfft_radix4_f32.c ****       i3 = i2 + n2;
 154:../libDaisy/Drivers/CMSIS/DSP/Source/TransformFunctions/arm_cfft_radix4_f32.c **** 
 155:../libDaisy/Drivers/CMSIS/DSP/Source/TransformFunctions/arm_cfft_radix4_f32.c ****       xaIn = pSrc[(2u * i0)];
 156:../libDaisy/Drivers/CMSIS/DSP/Source/TransformFunctions/arm_cfft_radix4_f32.c ****       yaIn = pSrc[(2u * i0) + 1u];
 157:../libDaisy/Drivers/CMSIS/DSP/Source/TransformFunctions/arm_cfft_radix4_f32.c **** 
ARM GAS  /var/folders/6_/psd2b8g56p7696hhrr4ztjs00000gn/T//ccmmdqDi.s 			page 5


 158:../libDaisy/Drivers/CMSIS/DSP/Source/TransformFunctions/arm_cfft_radix4_f32.c ****       xbIn = pSrc[(2u * i1)];
 159:../libDaisy/Drivers/CMSIS/DSP/Source/TransformFunctions/arm_cfft_radix4_f32.c ****       ybIn = pSrc[(2u * i1) + 1u];
 160:../libDaisy/Drivers/CMSIS/DSP/Source/TransformFunctions/arm_cfft_radix4_f32.c **** 
 161:../libDaisy/Drivers/CMSIS/DSP/Source/TransformFunctions/arm_cfft_radix4_f32.c ****       xcIn = pSrc[(2u * i2)];
 162:../libDaisy/Drivers/CMSIS/DSP/Source/TransformFunctions/arm_cfft_radix4_f32.c ****       ycIn = pSrc[(2u * i2) + 1u];
 163:../libDaisy/Drivers/CMSIS/DSP/Source/TransformFunctions/arm_cfft_radix4_f32.c **** 
 164:../libDaisy/Drivers/CMSIS/DSP/Source/TransformFunctions/arm_cfft_radix4_f32.c ****       xdIn = pSrc[(2u * i3)];
 165:../libDaisy/Drivers/CMSIS/DSP/Source/TransformFunctions/arm_cfft_radix4_f32.c ****       ydIn = pSrc[(2u * i3) + 1u];
 166:../libDaisy/Drivers/CMSIS/DSP/Source/TransformFunctions/arm_cfft_radix4_f32.c **** 
 167:../libDaisy/Drivers/CMSIS/DSP/Source/TransformFunctions/arm_cfft_radix4_f32.c ****       /* xa + xc */
 168:../libDaisy/Drivers/CMSIS/DSP/Source/TransformFunctions/arm_cfft_radix4_f32.c ****       Xaplusc = xaIn + xcIn;
 169:../libDaisy/Drivers/CMSIS/DSP/Source/TransformFunctions/arm_cfft_radix4_f32.c ****       /* xb + xd */
 170:../libDaisy/Drivers/CMSIS/DSP/Source/TransformFunctions/arm_cfft_radix4_f32.c ****       Xbplusd = xbIn + xdIn;
 171:../libDaisy/Drivers/CMSIS/DSP/Source/TransformFunctions/arm_cfft_radix4_f32.c ****       /* ya + yc */
 172:../libDaisy/Drivers/CMSIS/DSP/Source/TransformFunctions/arm_cfft_radix4_f32.c ****       Yaplusc = yaIn + ycIn;
 173:../libDaisy/Drivers/CMSIS/DSP/Source/TransformFunctions/arm_cfft_radix4_f32.c ****       /* yb + yd */
 174:../libDaisy/Drivers/CMSIS/DSP/Source/TransformFunctions/arm_cfft_radix4_f32.c ****       Ybplusd = ybIn + ydIn;
 175:../libDaisy/Drivers/CMSIS/DSP/Source/TransformFunctions/arm_cfft_radix4_f32.c **** 
 176:../libDaisy/Drivers/CMSIS/DSP/Source/TransformFunctions/arm_cfft_radix4_f32.c ****       /*  index calculation for the coefficients */
 177:../libDaisy/Drivers/CMSIS/DSP/Source/TransformFunctions/arm_cfft_radix4_f32.c ****       ia2 = ia1 + ia1;
 178:../libDaisy/Drivers/CMSIS/DSP/Source/TransformFunctions/arm_cfft_radix4_f32.c ****       co2 = pCoef[ia2 * 2u];
 179:../libDaisy/Drivers/CMSIS/DSP/Source/TransformFunctions/arm_cfft_radix4_f32.c ****       si2 = pCoef[(ia2 * 2u) + 1u];
 180:../libDaisy/Drivers/CMSIS/DSP/Source/TransformFunctions/arm_cfft_radix4_f32.c **** 
 181:../libDaisy/Drivers/CMSIS/DSP/Source/TransformFunctions/arm_cfft_radix4_f32.c ****       /* xa - xc */
 182:../libDaisy/Drivers/CMSIS/DSP/Source/TransformFunctions/arm_cfft_radix4_f32.c ****       Xaminusc = xaIn - xcIn;
 183:../libDaisy/Drivers/CMSIS/DSP/Source/TransformFunctions/arm_cfft_radix4_f32.c ****       /* xb - xd */
 184:../libDaisy/Drivers/CMSIS/DSP/Source/TransformFunctions/arm_cfft_radix4_f32.c ****       Xbminusd = xbIn - xdIn;
 185:../libDaisy/Drivers/CMSIS/DSP/Source/TransformFunctions/arm_cfft_radix4_f32.c ****       /* ya - yc */
 186:../libDaisy/Drivers/CMSIS/DSP/Source/TransformFunctions/arm_cfft_radix4_f32.c ****       Yaminusc = yaIn - ycIn;
 187:../libDaisy/Drivers/CMSIS/DSP/Source/TransformFunctions/arm_cfft_radix4_f32.c ****       /* yb - yd */
 188:../libDaisy/Drivers/CMSIS/DSP/Source/TransformFunctions/arm_cfft_radix4_f32.c ****       Ybminusd = ybIn - ydIn;
 189:../libDaisy/Drivers/CMSIS/DSP/Source/TransformFunctions/arm_cfft_radix4_f32.c **** 
 190:../libDaisy/Drivers/CMSIS/DSP/Source/TransformFunctions/arm_cfft_radix4_f32.c ****       /* xa' = xa + xb + xc + xd */
 191:../libDaisy/Drivers/CMSIS/DSP/Source/TransformFunctions/arm_cfft_radix4_f32.c ****       pSrc[(2u * i0)] = Xaplusc + Xbplusd;
 192:../libDaisy/Drivers/CMSIS/DSP/Source/TransformFunctions/arm_cfft_radix4_f32.c ****       /* ya' = ya + yb + yc + yd */
 193:../libDaisy/Drivers/CMSIS/DSP/Source/TransformFunctions/arm_cfft_radix4_f32.c ****       pSrc[(2u * i0) + 1u] = Yaplusc + Ybplusd;
 194:../libDaisy/Drivers/CMSIS/DSP/Source/TransformFunctions/arm_cfft_radix4_f32.c **** 
 195:../libDaisy/Drivers/CMSIS/DSP/Source/TransformFunctions/arm_cfft_radix4_f32.c ****       /* (xa - xc) + (yb - yd) */
 196:../libDaisy/Drivers/CMSIS/DSP/Source/TransformFunctions/arm_cfft_radix4_f32.c ****       Xb12C_out = (Xaminusc + Ybminusd);
 197:../libDaisy/Drivers/CMSIS/DSP/Source/TransformFunctions/arm_cfft_radix4_f32.c ****       /* (ya - yc) + (xb - xd) */
 198:../libDaisy/Drivers/CMSIS/DSP/Source/TransformFunctions/arm_cfft_radix4_f32.c ****       Yb12C_out = (Yaminusc - Xbminusd);
 199:../libDaisy/Drivers/CMSIS/DSP/Source/TransformFunctions/arm_cfft_radix4_f32.c ****       /* (xa + xc) - (xb + xd) */
 200:../libDaisy/Drivers/CMSIS/DSP/Source/TransformFunctions/arm_cfft_radix4_f32.c ****       Xc12C_out = (Xaplusc - Xbplusd);
 201:../libDaisy/Drivers/CMSIS/DSP/Source/TransformFunctions/arm_cfft_radix4_f32.c ****       /* (ya + yc) - (yb + yd) */
 202:../libDaisy/Drivers/CMSIS/DSP/Source/TransformFunctions/arm_cfft_radix4_f32.c ****       Yc12C_out = (Yaplusc - Ybplusd);
 203:../libDaisy/Drivers/CMSIS/DSP/Source/TransformFunctions/arm_cfft_radix4_f32.c ****       /* (xa - xc) - (yb - yd) */
 204:../libDaisy/Drivers/CMSIS/DSP/Source/TransformFunctions/arm_cfft_radix4_f32.c ****       Xd12C_out = (Xaminusc - Ybminusd);
 205:../libDaisy/Drivers/CMSIS/DSP/Source/TransformFunctions/arm_cfft_radix4_f32.c ****       /* (ya - yc) + (xb - xd) */
 206:../libDaisy/Drivers/CMSIS/DSP/Source/TransformFunctions/arm_cfft_radix4_f32.c ****       Yd12C_out = (Xbminusd + Yaminusc);
 207:../libDaisy/Drivers/CMSIS/DSP/Source/TransformFunctions/arm_cfft_radix4_f32.c **** 
 208:../libDaisy/Drivers/CMSIS/DSP/Source/TransformFunctions/arm_cfft_radix4_f32.c ****       co1 = pCoef[ia1 * 2u];
 209:../libDaisy/Drivers/CMSIS/DSP/Source/TransformFunctions/arm_cfft_radix4_f32.c ****       si1 = pCoef[(ia1 * 2u) + 1u];
 210:../libDaisy/Drivers/CMSIS/DSP/Source/TransformFunctions/arm_cfft_radix4_f32.c **** 
 211:../libDaisy/Drivers/CMSIS/DSP/Source/TransformFunctions/arm_cfft_radix4_f32.c ****       /*  index calculation for the coefficients */
 212:../libDaisy/Drivers/CMSIS/DSP/Source/TransformFunctions/arm_cfft_radix4_f32.c ****       ia3 = ia2 + ia1;
 213:../libDaisy/Drivers/CMSIS/DSP/Source/TransformFunctions/arm_cfft_radix4_f32.c ****       co3 = pCoef[ia3 * 2u];
 214:../libDaisy/Drivers/CMSIS/DSP/Source/TransformFunctions/arm_cfft_radix4_f32.c ****       si3 = pCoef[(ia3 * 2u) + 1u];
ARM GAS  /var/folders/6_/psd2b8g56p7696hhrr4ztjs00000gn/T//ccmmdqDi.s 			page 6


 215:../libDaisy/Drivers/CMSIS/DSP/Source/TransformFunctions/arm_cfft_radix4_f32.c **** 
 216:../libDaisy/Drivers/CMSIS/DSP/Source/TransformFunctions/arm_cfft_radix4_f32.c ****       Xb12_out = Xb12C_out * co1;
 217:../libDaisy/Drivers/CMSIS/DSP/Source/TransformFunctions/arm_cfft_radix4_f32.c ****       Yb12_out = Yb12C_out * co1;
 218:../libDaisy/Drivers/CMSIS/DSP/Source/TransformFunctions/arm_cfft_radix4_f32.c ****       Xc12_out = Xc12C_out * co2;
 219:../libDaisy/Drivers/CMSIS/DSP/Source/TransformFunctions/arm_cfft_radix4_f32.c ****       Yc12_out = Yc12C_out * co2;
 220:../libDaisy/Drivers/CMSIS/DSP/Source/TransformFunctions/arm_cfft_radix4_f32.c ****       Xd12_out = Xd12C_out * co3;
 221:../libDaisy/Drivers/CMSIS/DSP/Source/TransformFunctions/arm_cfft_radix4_f32.c ****       Yd12_out = Yd12C_out * co3;
 222:../libDaisy/Drivers/CMSIS/DSP/Source/TransformFunctions/arm_cfft_radix4_f32.c **** 
 223:../libDaisy/Drivers/CMSIS/DSP/Source/TransformFunctions/arm_cfft_radix4_f32.c ****       /* xb' = (xa+yb-xc-yd)co1 - (ya-xb-yc+xd)(si1) */
 224:../libDaisy/Drivers/CMSIS/DSP/Source/TransformFunctions/arm_cfft_radix4_f32.c ****       //Xb12_out -= Yb12C_out * si1;
 225:../libDaisy/Drivers/CMSIS/DSP/Source/TransformFunctions/arm_cfft_radix4_f32.c ****       p0 = Yb12C_out * si1;
 226:../libDaisy/Drivers/CMSIS/DSP/Source/TransformFunctions/arm_cfft_radix4_f32.c ****       /* yb' = (ya-xb-yc+xd)co1 + (xa+yb-xc-yd)(si1) */
 227:../libDaisy/Drivers/CMSIS/DSP/Source/TransformFunctions/arm_cfft_radix4_f32.c ****       //Yb12_out += Xb12C_out * si1;
 228:../libDaisy/Drivers/CMSIS/DSP/Source/TransformFunctions/arm_cfft_radix4_f32.c ****       p1 = Xb12C_out * si1;
 229:../libDaisy/Drivers/CMSIS/DSP/Source/TransformFunctions/arm_cfft_radix4_f32.c ****       /* xc' = (xa-xb+xc-xd)co2 - (ya-yb+yc-yd)(si2) */
 230:../libDaisy/Drivers/CMSIS/DSP/Source/TransformFunctions/arm_cfft_radix4_f32.c ****       //Xc12_out -= Yc12C_out * si2;
 231:../libDaisy/Drivers/CMSIS/DSP/Source/TransformFunctions/arm_cfft_radix4_f32.c ****       p2 = Yc12C_out * si2;
 232:../libDaisy/Drivers/CMSIS/DSP/Source/TransformFunctions/arm_cfft_radix4_f32.c ****       /* yc' = (ya-yb+yc-yd)co2 + (xa-xb+xc-xd)(si2) */
 233:../libDaisy/Drivers/CMSIS/DSP/Source/TransformFunctions/arm_cfft_radix4_f32.c ****       //Yc12_out += Xc12C_out * si2;
 234:../libDaisy/Drivers/CMSIS/DSP/Source/TransformFunctions/arm_cfft_radix4_f32.c ****       p3 = Xc12C_out * si2;
 235:../libDaisy/Drivers/CMSIS/DSP/Source/TransformFunctions/arm_cfft_radix4_f32.c ****       /* xd' = (xa-yb-xc+yd)co3 - (ya+xb-yc-xd)(si3) */
 236:../libDaisy/Drivers/CMSIS/DSP/Source/TransformFunctions/arm_cfft_radix4_f32.c ****       //Xd12_out -= Yd12C_out * si3;
 237:../libDaisy/Drivers/CMSIS/DSP/Source/TransformFunctions/arm_cfft_radix4_f32.c ****       p4 = Yd12C_out * si3;
 238:../libDaisy/Drivers/CMSIS/DSP/Source/TransformFunctions/arm_cfft_radix4_f32.c ****       /* yd' = (ya+xb-yc-xd)co3 + (xa-yb-xc+yd)(si3) */
 239:../libDaisy/Drivers/CMSIS/DSP/Source/TransformFunctions/arm_cfft_radix4_f32.c ****       //Yd12_out += Xd12C_out * si3;
 240:../libDaisy/Drivers/CMSIS/DSP/Source/TransformFunctions/arm_cfft_radix4_f32.c ****       p5 = Xd12C_out * si3;
 241:../libDaisy/Drivers/CMSIS/DSP/Source/TransformFunctions/arm_cfft_radix4_f32.c **** 
 242:../libDaisy/Drivers/CMSIS/DSP/Source/TransformFunctions/arm_cfft_radix4_f32.c ****       Xb12_out += p0;
 243:../libDaisy/Drivers/CMSIS/DSP/Source/TransformFunctions/arm_cfft_radix4_f32.c ****       Yb12_out -= p1;
 244:../libDaisy/Drivers/CMSIS/DSP/Source/TransformFunctions/arm_cfft_radix4_f32.c ****       Xc12_out += p2;
 245:../libDaisy/Drivers/CMSIS/DSP/Source/TransformFunctions/arm_cfft_radix4_f32.c ****       Yc12_out -= p3;
 246:../libDaisy/Drivers/CMSIS/DSP/Source/TransformFunctions/arm_cfft_radix4_f32.c ****       Xd12_out += p4;
 247:../libDaisy/Drivers/CMSIS/DSP/Source/TransformFunctions/arm_cfft_radix4_f32.c ****       Yd12_out -= p5;
 248:../libDaisy/Drivers/CMSIS/DSP/Source/TransformFunctions/arm_cfft_radix4_f32.c **** 
 249:../libDaisy/Drivers/CMSIS/DSP/Source/TransformFunctions/arm_cfft_radix4_f32.c ****       /* xc' = (xa-xb+xc-xd)co2 + (ya-yb+yc-yd)(si2) */
 250:../libDaisy/Drivers/CMSIS/DSP/Source/TransformFunctions/arm_cfft_radix4_f32.c ****       pSrc[2u * i1] = Xc12_out;
 251:../libDaisy/Drivers/CMSIS/DSP/Source/TransformFunctions/arm_cfft_radix4_f32.c **** 
 252:../libDaisy/Drivers/CMSIS/DSP/Source/TransformFunctions/arm_cfft_radix4_f32.c ****       /* yc' = (ya-yb+yc-yd)co2 - (xa-xb+xc-xd)(si2) */
 253:../libDaisy/Drivers/CMSIS/DSP/Source/TransformFunctions/arm_cfft_radix4_f32.c ****       pSrc[(2u * i1) + 1u] = Yc12_out;
 254:../libDaisy/Drivers/CMSIS/DSP/Source/TransformFunctions/arm_cfft_radix4_f32.c **** 
 255:../libDaisy/Drivers/CMSIS/DSP/Source/TransformFunctions/arm_cfft_radix4_f32.c ****       /* xb' = (xa+yb-xc-yd)co1 + (ya-xb-yc+xd)(si1) */
 256:../libDaisy/Drivers/CMSIS/DSP/Source/TransformFunctions/arm_cfft_radix4_f32.c ****       pSrc[2u * i2] = Xb12_out;
 257:../libDaisy/Drivers/CMSIS/DSP/Source/TransformFunctions/arm_cfft_radix4_f32.c **** 
 258:../libDaisy/Drivers/CMSIS/DSP/Source/TransformFunctions/arm_cfft_radix4_f32.c ****       /* yb' = (ya-xb-yc+xd)co1 - (xa+yb-xc-yd)(si1) */
 259:../libDaisy/Drivers/CMSIS/DSP/Source/TransformFunctions/arm_cfft_radix4_f32.c ****       pSrc[(2u * i2) + 1u] = Yb12_out;
 260:../libDaisy/Drivers/CMSIS/DSP/Source/TransformFunctions/arm_cfft_radix4_f32.c **** 
 261:../libDaisy/Drivers/CMSIS/DSP/Source/TransformFunctions/arm_cfft_radix4_f32.c ****       /* xd' = (xa-yb-xc+yd)co3 + (ya+xb-yc-xd)(si3) */
 262:../libDaisy/Drivers/CMSIS/DSP/Source/TransformFunctions/arm_cfft_radix4_f32.c ****       pSrc[2u * i3] = Xd12_out;
 263:../libDaisy/Drivers/CMSIS/DSP/Source/TransformFunctions/arm_cfft_radix4_f32.c **** 
 264:../libDaisy/Drivers/CMSIS/DSP/Source/TransformFunctions/arm_cfft_radix4_f32.c ****       /* yd' = (ya+xb-yc-xd)co3 - (xa-yb-xc+yd)(si3) */
 265:../libDaisy/Drivers/CMSIS/DSP/Source/TransformFunctions/arm_cfft_radix4_f32.c ****       pSrc[(2u * i3) + 1u] = Yd12_out;
 266:../libDaisy/Drivers/CMSIS/DSP/Source/TransformFunctions/arm_cfft_radix4_f32.c **** 
 267:../libDaisy/Drivers/CMSIS/DSP/Source/TransformFunctions/arm_cfft_radix4_f32.c ****       /*  Twiddle coefficients index modifier */
 268:../libDaisy/Drivers/CMSIS/DSP/Source/TransformFunctions/arm_cfft_radix4_f32.c ****       ia1 += twidCoefModifier;
  70              		.loc 1 268 11 view .LVU19
  71 0012 6246     		mov	r2, ip
  72              	.LVL3:
ARM GAS  /var/folders/6_/psd2b8g56p7696hhrr4ztjs00000gn/T//ccmmdqDi.s 			page 7


  73              		.loc 1 268 11 view .LVU20
  74 0014 0AEB4A00 		add	r0, r10, r10, lsl #1
  75              	.LVL4:
  76              		.loc 1 268 11 view .LVU21
  77 0018 8E46     		mov	lr, r1
  78 001a 03EB4309 		add	r9, r3, r3, lsl #1
  79 001e 0F46     		mov	r7, r1
  80 0020 0CEBC000 		add	r0, ip, r0, lsl #3
  81 0024 0E46     		mov	r6, r1
  82 0026 0CEB0A15 		add	r5, ip, r10, lsl #4
  83 002a 4446     		mov	r4, r8
 115:../libDaisy/Drivers/CMSIS/DSP/Source/TransformFunctions/arm_cfft_radix4_f32.c **** 
  84              		.loc 1 115 1 view .LVU22
  85 002c 2DED068B 		vpush.64	{d8, d9, d10}
  86              		.cfi_def_cfa_offset 60
  87              		.cfi_offset 80, -60
  88              		.cfi_offset 81, -56
  89              		.cfi_offset 82, -52
  90              		.cfi_offset 83, -48
  91              		.cfi_offset 84, -44
  92              		.cfi_offset 85, -40
  93 0030 8BB0     		sub	sp, sp, #44
  94              		.cfi_def_cfa_offset 104
 140:../libDaisy/Drivers/CMSIS/DSP/Source/TransformFunctions/arm_cfft_radix4_f32.c ****    i0 = 0u;
  95              		.loc 1 140 7 view .LVU23
  96 0032 CDF800A0 		str	r10, [sp]
  97              	.LVL5:
 141:../libDaisy/Drivers/CMSIS/DSP/Source/TransformFunctions/arm_cfft_radix4_f32.c ****    i0 = 0u;
  98              		.loc 1 141 4 is_stmt 1 view .LVU24
 142:../libDaisy/Drivers/CMSIS/DSP/Source/TransformFunctions/arm_cfft_radix4_f32.c **** 
  99              		.loc 1 142 4 view .LVU25
 144:../libDaisy/Drivers/CMSIS/DSP/Source/TransformFunctions/arm_cfft_radix4_f32.c **** 
 100              		.loc 1 144 4 view .LVU26
 101              	.L2:
 147:../libDaisy/Drivers/CMSIS/DSP/Source/TransformFunctions/arm_cfft_radix4_f32.c ****    {
 102              		.loc 1 147 4 view .LVU27
 151:../libDaisy/Drivers/CMSIS/DSP/Source/TransformFunctions/arm_cfft_radix4_f32.c ****       i2 = i1 + n2;
 103              		.loc 1 151 7 view .LVU28
 152:../libDaisy/Drivers/CMSIS/DSP/Source/TransformFunctions/arm_cfft_radix4_f32.c ****       i3 = i2 + n2;
 104              		.loc 1 152 7 view .LVU29
 153:../libDaisy/Drivers/CMSIS/DSP/Source/TransformFunctions/arm_cfft_radix4_f32.c **** 
 105              		.loc 1 153 7 view .LVU30
 155:../libDaisy/Drivers/CMSIS/DSP/Source/TransformFunctions/arm_cfft_radix4_f32.c ****       yaIn = pSrc[(2u * i0) + 1u];
 106              		.loc 1 155 7 view .LVU31
 155:../libDaisy/Drivers/CMSIS/DSP/Source/TransformFunctions/arm_cfft_radix4_f32.c ****       yaIn = pSrc[(2u * i0) + 1u];
 107              		.loc 1 155 12 is_stmt 0 view .LVU32
 108 0036 92ED007A 		vldr.32	s14, [r2]
 109              	.LVL6:
 156:../libDaisy/Drivers/CMSIS/DSP/Source/TransformFunctions/arm_cfft_radix4_f32.c **** 
 110              		.loc 1 156 7 is_stmt 1 view .LVU33
 269:../libDaisy/Drivers/CMSIS/DSP/Source/TransformFunctions/arm_cfft_radix4_f32.c **** 
 270:../libDaisy/Drivers/CMSIS/DSP/Source/TransformFunctions/arm_cfft_radix4_f32.c ****       /*  Updating input index */
 271:../libDaisy/Drivers/CMSIS/DSP/Source/TransformFunctions/arm_cfft_radix4_f32.c ****       i0++;
 272:../libDaisy/Drivers/CMSIS/DSP/Source/TransformFunctions/arm_cfft_radix4_f32.c **** 
 273:../libDaisy/Drivers/CMSIS/DSP/Source/TransformFunctions/arm_cfft_radix4_f32.c ****    }
 274:../libDaisy/Drivers/CMSIS/DSP/Source/TransformFunctions/arm_cfft_radix4_f32.c ****    while (--j);
 111              		.loc 1 274 11 is_stmt 0 discriminator 1 view .LVU34
ARM GAS  /var/folders/6_/psd2b8g56p7696hhrr4ztjs00000gn/T//ccmmdqDi.s 			page 8


 112 003a 0832     		adds	r2, r2, #8
 161:../libDaisy/Drivers/CMSIS/DSP/Source/TransformFunctions/arm_cfft_radix4_f32.c ****       ycIn = pSrc[(2u * i2) + 1u];
 113              		.loc 1 161 12 view .LVU35
 114 003c 95ED002A 		vldr.32	s4, [r5]
 115              		.loc 1 274 11 discriminator 1 view .LVU36
 116 0040 0834     		adds	r4, r4, #8
 162:../libDaisy/Drivers/CMSIS/DSP/Source/TransformFunctions/arm_cfft_radix4_f32.c **** 
 117              		.loc 1 162 12 view .LVU37
 118 0042 95ED013A 		vldr.32	s6, [r5, #4]
 119              		.loc 1 274 11 discriminator 1 view .LVU38
 120 0046 0830     		adds	r0, r0, #8
 156:../libDaisy/Drivers/CMSIS/DSP/Source/TransformFunctions/arm_cfft_radix4_f32.c **** 
 121              		.loc 1 156 12 view .LVU39
 122 0048 52ED016A 		vldr.32	s13, [r2, #-4]
 123              	.LVL7:
 158:../libDaisy/Drivers/CMSIS/DSP/Source/TransformFunctions/arm_cfft_radix4_f32.c ****       ybIn = pSrc[(2u * i1) + 1u];
 124              		.loc 1 158 7 is_stmt 1 view .LVU40
 168:../libDaisy/Drivers/CMSIS/DSP/Source/TransformFunctions/arm_cfft_radix4_f32.c ****       /* xb + xd */
 125              		.loc 1 168 15 is_stmt 0 view .LVU41
 126 004c 77EE024A 		vadd.f32	s9, s14, s4
 164:../libDaisy/Drivers/CMSIS/DSP/Source/TransformFunctions/arm_cfft_radix4_f32.c ****       ydIn = pSrc[(2u * i3) + 1u];
 127              		.loc 1 164 12 view .LVU42
 128 0050 50ED022A 		vldr.32	s5, [r0, #-8]
 182:../libDaisy/Drivers/CMSIS/DSP/Source/TransformFunctions/arm_cfft_radix4_f32.c ****       /* xb - xd */
 129              		.loc 1 182 16 view .LVU43
 130 0054 37EE427A 		vsub.f32	s14, s14, s4
 131              	.LVL8:
 165:../libDaisy/Drivers/CMSIS/DSP/Source/TransformFunctions/arm_cfft_radix4_f32.c **** 
 132              		.loc 1 165 12 view .LVU44
 133 0058 50ED013A 		vldr.32	s7, [r0, #-4]
 172:../libDaisy/Drivers/CMSIS/DSP/Source/TransformFunctions/arm_cfft_radix4_f32.c ****       /* yb + yd */
 134              		.loc 1 172 15 view .LVU45
 135 005c 36EE835A 		vadd.f32	s10, s13, s6
 158:../libDaisy/Drivers/CMSIS/DSP/Source/TransformFunctions/arm_cfft_radix4_f32.c ****       ybIn = pSrc[(2u * i1) + 1u];
 136              		.loc 1 158 12 view .LVU46
 137 0060 54ED027A 		vldr.32	s15, [r4, #-8]
 138              	.LVL9:
 159:../libDaisy/Drivers/CMSIS/DSP/Source/TransformFunctions/arm_cfft_radix4_f32.c **** 
 139              		.loc 1 159 7 is_stmt 1 view .LVU47
 186:../libDaisy/Drivers/CMSIS/DSP/Source/TransformFunctions/arm_cfft_radix4_f32.c ****       /* yb - yd */
 140              		.loc 1 186 16 is_stmt 0 view .LVU48
 141 0064 76EEC36A 		vsub.f32	s13, s13, s6
 142              	.LVL10:
 159:../libDaisy/Drivers/CMSIS/DSP/Source/TransformFunctions/arm_cfft_radix4_f32.c **** 
 143              		.loc 1 159 12 view .LVU49
 144 0068 14ED016A 		vldr.32	s12, [r4, #-4]
 145              	.LVL11:
 161:../libDaisy/Drivers/CMSIS/DSP/Source/TransformFunctions/arm_cfft_radix4_f32.c ****       ycIn = pSrc[(2u * i2) + 1u];
 146              		.loc 1 161 7 is_stmt 1 view .LVU50
 162:../libDaisy/Drivers/CMSIS/DSP/Source/TransformFunctions/arm_cfft_radix4_f32.c **** 
 147              		.loc 1 162 7 view .LVU51
 164:../libDaisy/Drivers/CMSIS/DSP/Source/TransformFunctions/arm_cfft_radix4_f32.c ****       ydIn = pSrc[(2u * i3) + 1u];
 148              		.loc 1 164 7 view .LVU52
 165:../libDaisy/Drivers/CMSIS/DSP/Source/TransformFunctions/arm_cfft_radix4_f32.c **** 
 149              		.loc 1 165 7 view .LVU53
 168:../libDaisy/Drivers/CMSIS/DSP/Source/TransformFunctions/arm_cfft_radix4_f32.c ****       /* xb + xd */
 150              		.loc 1 168 7 view .LVU54
ARM GAS  /var/folders/6_/psd2b8g56p7696hhrr4ztjs00000gn/T//ccmmdqDi.s 			page 9


 170:../libDaisy/Drivers/CMSIS/DSP/Source/TransformFunctions/arm_cfft_radix4_f32.c ****       /* ya + yc */
 151              		.loc 1 170 7 view .LVU55
 152              		.loc 1 274 11 is_stmt 0 discriminator 1 view .LVU56
 153 006c 0835     		adds	r5, r5, #8
 170:../libDaisy/Drivers/CMSIS/DSP/Source/TransformFunctions/arm_cfft_radix4_f32.c ****       /* ya + yc */
 154              		.loc 1 170 15 view .LVU57
 155 006e 37EEA24A 		vadd.f32	s8, s15, s5
 156              	.LVL12:
 172:../libDaisy/Drivers/CMSIS/DSP/Source/TransformFunctions/arm_cfft_radix4_f32.c ****       /* yb + yd */
 157              		.loc 1 172 7 is_stmt 1 view .LVU58
 174:../libDaisy/Drivers/CMSIS/DSP/Source/TransformFunctions/arm_cfft_radix4_f32.c **** 
 158              		.loc 1 174 7 view .LVU59
 178:../libDaisy/Drivers/CMSIS/DSP/Source/TransformFunctions/arm_cfft_radix4_f32.c ****       si2 = pCoef[(ia2 * 2u) + 1u];
 159              		.loc 1 178 11 is_stmt 0 view .LVU60
 160 0072 56ED010A 		vldr.32	s1, [r6, #-4]
 174:../libDaisy/Drivers/CMSIS/DSP/Source/TransformFunctions/arm_cfft_radix4_f32.c **** 
 161              		.loc 1 174 15 view .LVU61
 162 0076 76EE235A 		vadd.f32	s11, s12, s7
 163              	.LVL13:
 177:../libDaisy/Drivers/CMSIS/DSP/Source/TransformFunctions/arm_cfft_radix4_f32.c ****       co2 = pCoef[ia2 * 2u];
 164              		.loc 1 177 7 is_stmt 1 view .LVU62
 178:../libDaisy/Drivers/CMSIS/DSP/Source/TransformFunctions/arm_cfft_radix4_f32.c ****       si2 = pCoef[(ia2 * 2u) + 1u];
 165              		.loc 1 178 7 view .LVU63
 184:../libDaisy/Drivers/CMSIS/DSP/Source/TransformFunctions/arm_cfft_radix4_f32.c ****       /* ya - yc */
 166              		.loc 1 184 16 is_stmt 0 view .LVU64
 167 007a 77EEE27A 		vsub.f32	s15, s15, s5
 168              	.LVL14:
 188:../libDaisy/Drivers/CMSIS/DSP/Source/TransformFunctions/arm_cfft_radix4_f32.c **** 
 169              		.loc 1 188 16 view .LVU65
 170 007e 36EE636A 		vsub.f32	s12, s12, s7
 171              	.LVL15:
 191:../libDaisy/Drivers/CMSIS/DSP/Source/TransformFunctions/arm_cfft_radix4_f32.c ****       /* ya' = ya + yb + yc + yd */
 172              		.loc 1 191 33 view .LVU66
 173 0082 34EE843A 		vadd.f32	s6, s9, s8
 174              	.LVL16:
 193:../libDaisy/Drivers/CMSIS/DSP/Source/TransformFunctions/arm_cfft_radix4_f32.c **** 
 175              		.loc 1 193 38 view .LVU67
 176 0086 75EE253A 		vadd.f32	s7, s10, s11
 177              	.LVL17:
 200:../libDaisy/Drivers/CMSIS/DSP/Source/TransformFunctions/arm_cfft_radix4_f32.c ****       /* (ya + yc) - (yb + yd) */
 178              		.loc 1 200 17 view .LVU68
 179 008a 74EEC44A 		vsub.f32	s9, s9, s8
 180              	.LVL18:
 202:../libDaisy/Drivers/CMSIS/DSP/Source/TransformFunctions/arm_cfft_radix4_f32.c ****       /* (xa - xc) - (yb - yd) */
 181              		.loc 1 202 17 view .LVU69
 182 008e 35EE655A 		vsub.f32	s10, s10, s11
 183              	.LVL19:
 179:../libDaisy/Drivers/CMSIS/DSP/Source/TransformFunctions/arm_cfft_radix4_f32.c **** 
 184              		.loc 1 179 11 view .LVU70
 185 0092 D6ED005A 		vldr.32	s11, [r6]
 186              	.LVL20:
 198:../libDaisy/Drivers/CMSIS/DSP/Source/TransformFunctions/arm_cfft_radix4_f32.c ****       /* (xa + xc) - (xb + xd) */
 187              		.loc 1 198 17 view .LVU71
 188 0096 76EEE71A 		vsub.f32	s3, s13, s15
 191:../libDaisy/Drivers/CMSIS/DSP/Source/TransformFunctions/arm_cfft_radix4_f32.c ****       /* ya' = ya + yb + yc + yd */
 189              		.loc 1 191 23 view .LVU72
 190 009a 02ED023A 		vstr.32	s6, [r2, #-8]
ARM GAS  /var/folders/6_/psd2b8g56p7696hhrr4ztjs00000gn/T//ccmmdqDi.s 			page 10


 191              	.LVL21:
 193:../libDaisy/Drivers/CMSIS/DSP/Source/TransformFunctions/arm_cfft_radix4_f32.c **** 
 192              		.loc 1 193 28 view .LVU73
 193 009e 42ED013A 		vstr.32	s7, [r2, #-4]
 194              	.LVL22:
 206:../libDaisy/Drivers/CMSIS/DSP/Source/TransformFunctions/arm_cfft_radix4_f32.c **** 
 195              		.loc 1 206 17 view .LVU74
 196 00a2 77EEA67A 		vadd.f32	s15, s15, s13
 196:../libDaisy/Drivers/CMSIS/DSP/Source/TransformFunctions/arm_cfft_radix4_f32.c ****       /* (ya - yc) + (xb - xd) */
 197              		.loc 1 196 17 view .LVU75
 198 00a6 37EE061A 		vadd.f32	s2, s14, s12
 214:../libDaisy/Drivers/CMSIS/DSP/Source/TransformFunctions/arm_cfft_radix4_f32.c **** 
 199              		.loc 1 214 11 view .LVU76
 200 00aa DEED006A 		vldr.32	s13, [lr]
 204:../libDaisy/Drivers/CMSIS/DSP/Source/TransformFunctions/arm_cfft_radix4_f32.c ****       /* (ya - yc) + (xb - xd) */
 201              		.loc 1 204 17 view .LVU77
 202 00ae 37EE467A 		vsub.f32	s14, s14, s12
 203              	.LVL23:
 179:../libDaisy/Drivers/CMSIS/DSP/Source/TransformFunctions/arm_cfft_radix4_f32.c **** 
 204              		.loc 1 179 7 is_stmt 1 view .LVU78
 182:../libDaisy/Drivers/CMSIS/DSP/Source/TransformFunctions/arm_cfft_radix4_f32.c ****       /* xb - xd */
 205              		.loc 1 182 7 view .LVU79
 184:../libDaisy/Drivers/CMSIS/DSP/Source/TransformFunctions/arm_cfft_radix4_f32.c ****       /* ya - yc */
 206              		.loc 1 184 7 view .LVU80
 186:../libDaisy/Drivers/CMSIS/DSP/Source/TransformFunctions/arm_cfft_radix4_f32.c ****       /* yb - yd */
 207              		.loc 1 186 7 view .LVU81
 188:../libDaisy/Drivers/CMSIS/DSP/Source/TransformFunctions/arm_cfft_radix4_f32.c **** 
 208              		.loc 1 188 7 view .LVU82
 191:../libDaisy/Drivers/CMSIS/DSP/Source/TransformFunctions/arm_cfft_radix4_f32.c ****       /* ya' = ya + yb + yc + yd */
 209              		.loc 1 191 7 view .LVU83
 193:../libDaisy/Drivers/CMSIS/DSP/Source/TransformFunctions/arm_cfft_radix4_f32.c **** 
 210              		.loc 1 193 7 view .LVU84
 196:../libDaisy/Drivers/CMSIS/DSP/Source/TransformFunctions/arm_cfft_radix4_f32.c ****       /* (ya - yc) + (xb - xd) */
 211              		.loc 1 196 7 view .LVU85
 198:../libDaisy/Drivers/CMSIS/DSP/Source/TransformFunctions/arm_cfft_radix4_f32.c ****       /* (xa + xc) - (xb + xd) */
 212              		.loc 1 198 7 view .LVU86
 200:../libDaisy/Drivers/CMSIS/DSP/Source/TransformFunctions/arm_cfft_radix4_f32.c ****       /* (ya + yc) - (yb + yd) */
 213              		.loc 1 200 7 view .LVU87
 202:../libDaisy/Drivers/CMSIS/DSP/Source/TransformFunctions/arm_cfft_radix4_f32.c ****       /* (xa - xc) - (yb - yd) */
 214              		.loc 1 202 7 view .LVU88
 204:../libDaisy/Drivers/CMSIS/DSP/Source/TransformFunctions/arm_cfft_radix4_f32.c ****       /* (ya - yc) + (xb - xd) */
 215              		.loc 1 204 7 view .LVU89
 206:../libDaisy/Drivers/CMSIS/DSP/Source/TransformFunctions/arm_cfft_radix4_f32.c **** 
 216              		.loc 1 206 7 view .LVU90
 208:../libDaisy/Drivers/CMSIS/DSP/Source/TransformFunctions/arm_cfft_radix4_f32.c ****       si1 = pCoef[(ia1 * 2u) + 1u];
 217              		.loc 1 208 7 view .LVU91
 209:../libDaisy/Drivers/CMSIS/DSP/Source/TransformFunctions/arm_cfft_radix4_f32.c **** 
 218              		.loc 1 209 11 is_stmt 0 view .LVU92
 219 00b2 97ED006A 		vldr.32	s12, [r7]
 220              	.LVL24:
 231:../libDaisy/Drivers/CMSIS/DSP/Source/TransformFunctions/arm_cfft_radix4_f32.c ****       /* yc' = (ya-yb+yc-yd)co2 + (xa-xb+xc-xd)(si2) */
 221              		.loc 1 231 10 view .LVU93
 222 00b6 25EE853A 		vmul.f32	s6, s11, s10
 208:../libDaisy/Drivers/CMSIS/DSP/Source/TransformFunctions/arm_cfft_radix4_f32.c ****       si1 = pCoef[(ia1 * 2u) + 1u];
 223              		.loc 1 208 11 view .LVU94
 224 00ba 17ED012A 		vldr.32	s4, [r7, #-4]
 225              	.LVL25:
ARM GAS  /var/folders/6_/psd2b8g56p7696hhrr4ztjs00000gn/T//ccmmdqDi.s 			page 11


 245:../libDaisy/Drivers/CMSIS/DSP/Source/TransformFunctions/arm_cfft_radix4_f32.c ****       Xd12_out += p4;
 226              		.loc 1 245 16 view .LVU95
 227 00be 64EEE55A 		vnmul.f32	s11, s9, s11
 228              	.LVL26:
 213:../libDaisy/Drivers/CMSIS/DSP/Source/TransformFunctions/arm_cfft_radix4_f32.c ****       si3 = pCoef[(ia3 * 2u) + 1u];
 229              		.loc 1 213 11 view .LVU96
 230 00c2 5EED012A 		vldr.32	s5, [lr, #-4]
 231              	.LVL27:
 237:../libDaisy/Drivers/CMSIS/DSP/Source/TransformFunctions/arm_cfft_radix4_f32.c ****       /* yd' = (ya+xb-yc-xd)co3 + (xa-yb-xc+yd)(si3) */
 232              		.loc 1 237 10 view .LVU97
 233 00c6 27EEA64A 		vmul.f32	s8, s15, s13
 234              	.LVL28:
 235              		.loc 1 274 11 discriminator 1 view .LVU98
 236 00ca 9045     		cmp	r8, r2
 225:../libDaisy/Drivers/CMSIS/DSP/Source/TransformFunctions/arm_cfft_radix4_f32.c ****       /* yb' = (ya-xb-yc+xd)co1 + (xa+yb-xc-yd)(si1) */
 237              		.loc 1 225 10 view .LVU99
 238 00cc 61EE863A 		vmul.f32	s7, s3, s12
 239              		.loc 1 274 11 discriminator 1 view .LVU100
 240 00d0 06EB0316 		add	r6, r6, r3, lsl #4
 244:../libDaisy/Drivers/CMSIS/DSP/Source/TransformFunctions/arm_cfft_radix4_f32.c ****       Yc12_out -= p3;
 241              		.loc 1 244 16 view .LVU101
 242 00d4 A0EEA43A 		vfma.f32	s6, s1, s9
 243              		.loc 1 274 11 discriminator 1 view .LVU102
 244 00d8 07EBC307 		add	r7, r7, r3, lsl #3
 245:../libDaisy/Drivers/CMSIS/DSP/Source/TransformFunctions/arm_cfft_radix4_f32.c ****       Xd12_out += p4;
 245              		.loc 1 245 16 view .LVU103
 246 00dc E0EE855A 		vfma.f32	s11, s1, s10
 247              		.loc 1 274 11 discriminator 1 view .LVU104
 248 00e0 0EEBC90E 		add	lr, lr, r9, lsl #3
 243:../libDaisy/Drivers/CMSIS/DSP/Source/TransformFunctions/arm_cfft_radix4_f32.c ****       Xc12_out += p2;
 249              		.loc 1 243 16 view .LVU105
 250 00e4 26EE416A 		vnmul.f32	s12, s12, s2
 251              	.LVL29:
 209:../libDaisy/Drivers/CMSIS/DSP/Source/TransformFunctions/arm_cfft_radix4_f32.c **** 
 252              		.loc 1 209 7 is_stmt 1 view .LVU106
 212:../libDaisy/Drivers/CMSIS/DSP/Source/TransformFunctions/arm_cfft_radix4_f32.c ****       co3 = pCoef[ia3 * 2u];
 253              		.loc 1 212 7 view .LVU107
 213:../libDaisy/Drivers/CMSIS/DSP/Source/TransformFunctions/arm_cfft_radix4_f32.c ****       si3 = pCoef[(ia3 * 2u) + 1u];
 254              		.loc 1 213 7 view .LVU108
 214:../libDaisy/Drivers/CMSIS/DSP/Source/TransformFunctions/arm_cfft_radix4_f32.c **** 
 255              		.loc 1 214 7 view .LVU109
 216:../libDaisy/Drivers/CMSIS/DSP/Source/TransformFunctions/arm_cfft_radix4_f32.c ****       Yb12_out = Yb12C_out * co1;
 256              		.loc 1 216 7 view .LVU110
 217:../libDaisy/Drivers/CMSIS/DSP/Source/TransformFunctions/arm_cfft_radix4_f32.c ****       Xc12_out = Xc12C_out * co2;
 257              		.loc 1 217 7 view .LVU111
 218:../libDaisy/Drivers/CMSIS/DSP/Source/TransformFunctions/arm_cfft_radix4_f32.c ****       Yc12_out = Yc12C_out * co2;
 258              		.loc 1 218 7 view .LVU112
 219:../libDaisy/Drivers/CMSIS/DSP/Source/TransformFunctions/arm_cfft_radix4_f32.c ****       Xd12_out = Xd12C_out * co3;
 259              		.loc 1 219 7 view .LVU113
 220:../libDaisy/Drivers/CMSIS/DSP/Source/TransformFunctions/arm_cfft_radix4_f32.c ****       Yd12_out = Yd12C_out * co3;
 260              		.loc 1 220 7 view .LVU114
 221:../libDaisy/Drivers/CMSIS/DSP/Source/TransformFunctions/arm_cfft_radix4_f32.c **** 
 261              		.loc 1 221 7 view .LVU115
 225:../libDaisy/Drivers/CMSIS/DSP/Source/TransformFunctions/arm_cfft_radix4_f32.c ****       /* yb' = (ya-xb-yc+xd)co1 + (xa+yb-xc-yd)(si1) */
 262              		.loc 1 225 7 view .LVU116
 228:../libDaisy/Drivers/CMSIS/DSP/Source/TransformFunctions/arm_cfft_radix4_f32.c ****       /* xc' = (xa-xb+xc-xd)co2 - (ya-yb+yc-yd)(si2) */
 263              		.loc 1 228 7 view .LVU117
ARM GAS  /var/folders/6_/psd2b8g56p7696hhrr4ztjs00000gn/T//ccmmdqDi.s 			page 12


 231:../libDaisy/Drivers/CMSIS/DSP/Source/TransformFunctions/arm_cfft_radix4_f32.c ****       /* yc' = (ya-yb+yc-yd)co2 + (xa-xb+xc-xd)(si2) */
 264              		.loc 1 231 7 view .LVU118
 234:../libDaisy/Drivers/CMSIS/DSP/Source/TransformFunctions/arm_cfft_radix4_f32.c ****       /* xd' = (xa-yb-xc+yd)co3 - (ya+xb-yc-xd)(si3) */
 265              		.loc 1 234 7 view .LVU119
 237:../libDaisy/Drivers/CMSIS/DSP/Source/TransformFunctions/arm_cfft_radix4_f32.c ****       /* yd' = (ya+xb-yc-xd)co3 + (xa-yb-xc+yd)(si3) */
 266              		.loc 1 237 7 view .LVU120
 240:../libDaisy/Drivers/CMSIS/DSP/Source/TransformFunctions/arm_cfft_radix4_f32.c **** 
 267              		.loc 1 240 7 view .LVU121
 242:../libDaisy/Drivers/CMSIS/DSP/Source/TransformFunctions/arm_cfft_radix4_f32.c ****       Yb12_out -= p1;
 268              		.loc 1 242 7 view .LVU122
 265:../libDaisy/Drivers/CMSIS/DSP/Source/TransformFunctions/arm_cfft_radix4_f32.c **** 
 269              		.loc 1 265 28 is_stmt 0 view .LVU123
 270 00e8 66EEC76A 		vnmul.f32	s13, s13, s14
 271              	.LVL30:
 242:../libDaisy/Drivers/CMSIS/DSP/Source/TransformFunctions/arm_cfft_radix4_f32.c ****       Yb12_out -= p1;
 272              		.loc 1 242 16 view .LVU124
 273 00ec F0EE634A 		vmov.f32	s9, s7
 274              	.LVL31:
 246:../libDaisy/Drivers/CMSIS/DSP/Source/TransformFunctions/arm_cfft_radix4_f32.c ****       Yd12_out -= p5;
 275              		.loc 1 246 16 view .LVU125
 276 00f0 B0EE445A 		vmov.f32	s10, s8
 277              	.LVL32:
 243:../libDaisy/Drivers/CMSIS/DSP/Source/TransformFunctions/arm_cfft_radix4_f32.c ****       Xc12_out += p2;
 278              		.loc 1 243 16 view .LVU126
 279 00f4 A1EE826A 		vfma.f32	s12, s3, s4
 250:../libDaisy/Drivers/CMSIS/DSP/Source/TransformFunctions/arm_cfft_radix4_f32.c **** 
 280              		.loc 1 250 21 view .LVU127
 281 00f8 04ED023A 		vstr.32	s6, [r4, #-8]
 242:../libDaisy/Drivers/CMSIS/DSP/Source/TransformFunctions/arm_cfft_radix4_f32.c ****       Yb12_out -= p1;
 282              		.loc 1 242 16 view .LVU128
 283 00fc E1EE024A 		vfma.f32	s9, s2, s4
 284              	.LVL33:
 243:../libDaisy/Drivers/CMSIS/DSP/Source/TransformFunctions/arm_cfft_radix4_f32.c ****       Xc12_out += p2;
 285              		.loc 1 243 7 is_stmt 1 view .LVU129
 244:../libDaisy/Drivers/CMSIS/DSP/Source/TransformFunctions/arm_cfft_radix4_f32.c ****       Yc12_out -= p3;
 286              		.loc 1 244 7 view .LVU130
 245:../libDaisy/Drivers/CMSIS/DSP/Source/TransformFunctions/arm_cfft_radix4_f32.c ****       Xd12_out += p4;
 287              		.loc 1 245 7 view .LVU131
 246:../libDaisy/Drivers/CMSIS/DSP/Source/TransformFunctions/arm_cfft_radix4_f32.c ****       Yd12_out -= p5;
 288              		.loc 1 246 7 view .LVU132
 253:../libDaisy/Drivers/CMSIS/DSP/Source/TransformFunctions/arm_cfft_radix4_f32.c **** 
 289              		.loc 1 253 28 is_stmt 0 view .LVU133
 290 0100 44ED015A 		vstr.32	s11, [r4, #-4]
 246:../libDaisy/Drivers/CMSIS/DSP/Source/TransformFunctions/arm_cfft_radix4_f32.c ****       Yd12_out -= p5;
 291              		.loc 1 246 16 view .LVU134
 292 0104 A7EE225A 		vfma.f32	s10, s14, s5
 293              	.LVL34:
 247:../libDaisy/Drivers/CMSIS/DSP/Source/TransformFunctions/arm_cfft_radix4_f32.c **** 
 294              		.loc 1 247 7 is_stmt 1 view .LVU135
 250:../libDaisy/Drivers/CMSIS/DSP/Source/TransformFunctions/arm_cfft_radix4_f32.c **** 
 295              		.loc 1 250 7 view .LVU136
 253:../libDaisy/Drivers/CMSIS/DSP/Source/TransformFunctions/arm_cfft_radix4_f32.c **** 
 296              		.loc 1 253 7 view .LVU137
 256:../libDaisy/Drivers/CMSIS/DSP/Source/TransformFunctions/arm_cfft_radix4_f32.c **** 
 297              		.loc 1 256 7 view .LVU138
 265:../libDaisy/Drivers/CMSIS/DSP/Source/TransformFunctions/arm_cfft_radix4_f32.c **** 
 298              		.loc 1 265 28 is_stmt 0 view .LVU139
ARM GAS  /var/folders/6_/psd2b8g56p7696hhrr4ztjs00000gn/T//ccmmdqDi.s 			page 13


 299 0108 E7EEA26A 		vfma.f32	s13, s15, s5
 259:../libDaisy/Drivers/CMSIS/DSP/Source/TransformFunctions/arm_cfft_radix4_f32.c **** 
 300              		.loc 1 259 28 view .LVU140
 301 010c 05ED016A 		vstr.32	s12, [r5, #-4]
 256:../libDaisy/Drivers/CMSIS/DSP/Source/TransformFunctions/arm_cfft_radix4_f32.c **** 
 302              		.loc 1 256 21 view .LVU141
 303 0110 45ED024A 		vstr.32	s9, [r5, #-8]
 259:../libDaisy/Drivers/CMSIS/DSP/Source/TransformFunctions/arm_cfft_radix4_f32.c **** 
 304              		.loc 1 259 7 is_stmt 1 view .LVU142
 262:../libDaisy/Drivers/CMSIS/DSP/Source/TransformFunctions/arm_cfft_radix4_f32.c **** 
 305              		.loc 1 262 7 view .LVU143
 262:../libDaisy/Drivers/CMSIS/DSP/Source/TransformFunctions/arm_cfft_radix4_f32.c **** 
 306              		.loc 1 262 21 is_stmt 0 view .LVU144
 307 0114 00ED025A 		vstr.32	s10, [r0, #-8]
 265:../libDaisy/Drivers/CMSIS/DSP/Source/TransformFunctions/arm_cfft_radix4_f32.c **** 
 308              		.loc 1 265 7 is_stmt 1 view .LVU145
 265:../libDaisy/Drivers/CMSIS/DSP/Source/TransformFunctions/arm_cfft_radix4_f32.c **** 
 309              		.loc 1 265 28 is_stmt 0 view .LVU146
 310 0118 40ED016A 		vstr.32	s13, [r0, #-4]
 268:../libDaisy/Drivers/CMSIS/DSP/Source/TransformFunctions/arm_cfft_radix4_f32.c **** 
 311              		.loc 1 268 7 is_stmt 1 view .LVU147
 271:../libDaisy/Drivers/CMSIS/DSP/Source/TransformFunctions/arm_cfft_radix4_f32.c **** 
 312              		.loc 1 271 7 view .LVU148
 313              		.loc 1 274 11 discriminator 1 view .LVU149
 314 011c 8BD1     		bne	.L2
 275:../libDaisy/Drivers/CMSIS/DSP/Source/TransformFunctions/arm_cfft_radix4_f32.c **** 
 276:../libDaisy/Drivers/CMSIS/DSP/Source/TransformFunctions/arm_cfft_radix4_f32.c ****    twidCoefModifier <<= 2u;
 315              		.loc 1 276 4 view .LVU150
 316              	.LVL35:
 277:../libDaisy/Drivers/CMSIS/DSP/Source/TransformFunctions/arm_cfft_radix4_f32.c **** 
 278:../libDaisy/Drivers/CMSIS/DSP/Source/TransformFunctions/arm_cfft_radix4_f32.c ****    /*  Calculation of second stage to excluding last stage */
 279:../libDaisy/Drivers/CMSIS/DSP/Source/TransformFunctions/arm_cfft_radix4_f32.c ****    for (k = fftLen >> 2u; k > 4u; k >>= 2u)
 317              		.loc 1 279 4 view .LVU151
 318              		.loc 1 279 29 is_stmt 0 discriminator 1 view .LVU152
 319 011e BAF1040F 		cmp	r10, #4
 320              		.loc 1 279 20 view .LVU153
 321 0122 1FFA8AF0 		uxth	r0, r10
 322              	.LVL36:
 323              		.loc 1 279 29 is_stmt 1 discriminator 1 view .LVU154
 324 0126 40F2B580 		bls	.L8
 276:../libDaisy/Drivers/CMSIS/DSP/Source/TransformFunctions/arm_cfft_radix4_f32.c **** 
 325              		.loc 1 276 21 is_stmt 0 view .LVU155
 326 012a 9B00     		lsls	r3, r3, #2
 327              	.LVL37:
 328              		.loc 1 279 11 view .LVU156
 329 012c 0246     		mov	r2, r0
 330 012e 6446     		mov	r4, ip
 331 0130 0990     		str	r0, [sp, #36]
 276:../libDaisy/Drivers/CMSIS/DSP/Source/TransformFunctions/arm_cfft_radix4_f32.c **** 
 332              		.loc 1 276 21 view .LVU157
 333 0132 9BB2     		uxth	r3, r3
 334              	.LVL38:
 335              	.L7:
 280:../libDaisy/Drivers/CMSIS/DSP/Source/TransformFunctions/arm_cfft_radix4_f32.c ****    {
 281:../libDaisy/Drivers/CMSIS/DSP/Source/TransformFunctions/arm_cfft_radix4_f32.c ****       /*  Initializations for the first stage */
 282:../libDaisy/Drivers/CMSIS/DSP/Source/TransformFunctions/arm_cfft_radix4_f32.c ****       n1 = n2;
 336              		.loc 1 282 7 is_stmt 1 view .LVU158
ARM GAS  /var/folders/6_/psd2b8g56p7696hhrr4ztjs00000gn/T//ccmmdqDi.s 			page 14


 283:../libDaisy/Drivers/CMSIS/DSP/Source/TransformFunctions/arm_cfft_radix4_f32.c ****       n2 >>= 2u;
 337              		.loc 1 283 7 view .LVU159
 338 0134 009D     		ldr	r5, [sp]
 339 0136 DE00     		lsls	r6, r3, #3
 284:../libDaisy/Drivers/CMSIS/DSP/Source/TransformFunctions/arm_cfft_radix4_f32.c ****       ia1 = 0u;
 285:../libDaisy/Drivers/CMSIS/DSP/Source/TransformFunctions/arm_cfft_radix4_f32.c **** 
 286:../libDaisy/Drivers/CMSIS/DSP/Source/TransformFunctions/arm_cfft_radix4_f32.c ****       /*  Calculation of first stage */
 287:../libDaisy/Drivers/CMSIS/DSP/Source/TransformFunctions/arm_cfft_radix4_f32.c ****       j = 0;
 288:../libDaisy/Drivers/CMSIS/DSP/Source/TransformFunctions/arm_cfft_radix4_f32.c ****       do
 289:../libDaisy/Drivers/CMSIS/DSP/Source/TransformFunctions/arm_cfft_radix4_f32.c ****       {
 290:../libDaisy/Drivers/CMSIS/DSP/Source/TransformFunctions/arm_cfft_radix4_f32.c ****          /*  index calculation for the coefficients */
 291:../libDaisy/Drivers/CMSIS/DSP/Source/TransformFunctions/arm_cfft_radix4_f32.c ****          ia2 = ia1 + ia1;
 292:../libDaisy/Drivers/CMSIS/DSP/Source/TransformFunctions/arm_cfft_radix4_f32.c ****          ia3 = ia2 + ia1;
 293:../libDaisy/Drivers/CMSIS/DSP/Source/TransformFunctions/arm_cfft_radix4_f32.c ****          co1 = pCoef[ia1 * 2u];
 294:../libDaisy/Drivers/CMSIS/DSP/Source/TransformFunctions/arm_cfft_radix4_f32.c ****          si1 = pCoef[(ia1 * 2u) + 1u];
 295:../libDaisy/Drivers/CMSIS/DSP/Source/TransformFunctions/arm_cfft_radix4_f32.c ****          co2 = pCoef[ia2 * 2u];
 296:../libDaisy/Drivers/CMSIS/DSP/Source/TransformFunctions/arm_cfft_radix4_f32.c ****          si2 = pCoef[(ia2 * 2u) + 1u];
 297:../libDaisy/Drivers/CMSIS/DSP/Source/TransformFunctions/arm_cfft_radix4_f32.c ****          co3 = pCoef[ia3 * 2u];
 298:../libDaisy/Drivers/CMSIS/DSP/Source/TransformFunctions/arm_cfft_radix4_f32.c ****          si3 = pCoef[(ia3 * 2u) + 1u];
 299:../libDaisy/Drivers/CMSIS/DSP/Source/TransformFunctions/arm_cfft_radix4_f32.c **** 
 300:../libDaisy/Drivers/CMSIS/DSP/Source/TransformFunctions/arm_cfft_radix4_f32.c ****          /*  Twiddle coefficients index modifier */
 301:../libDaisy/Drivers/CMSIS/DSP/Source/TransformFunctions/arm_cfft_radix4_f32.c ****          ia1 += twidCoefModifier;
 340              		.loc 1 301 14 is_stmt 0 view .LVU160
 341 0138 8946     		mov	r9, r1
 342 013a 8846     		mov	r8, r1
 343 013c 2846     		mov	r0, r5
 344 013e 0396     		str	r6, [sp, #12]
 283:../libDaisy/Drivers/CMSIS/DSP/Source/TransformFunctions/arm_cfft_radix4_f32.c ****       n2 >>= 2u;
 345              		.loc 1 283 10 view .LVU161
 346 0140 AD08     		lsrs	r5, r5, #2
 347              		.loc 1 301 14 view .LVU162
 348 0142 8E46     		mov	lr, r1
 349 0144 1E01     		lsls	r6, r3, #4
 350 0146 2746     		mov	r7, r4
 351 0148 04EB051A 		add	r10, r4, r5, lsl #4
 283:../libDaisy/Drivers/CMSIS/DSP/Source/TransformFunctions/arm_cfft_radix4_f32.c ****       n2 >>= 2u;
 352              		.loc 1 283 10 view .LVU163
 353 014c 0095     		str	r5, [sp]
 354              	.LVL39:
 284:../libDaisy/Drivers/CMSIS/DSP/Source/TransformFunctions/arm_cfft_radix4_f32.c ****       ia1 = 0u;
 355              		.loc 1 284 7 is_stmt 1 view .LVU164
 287:../libDaisy/Drivers/CMSIS/DSP/Source/TransformFunctions/arm_cfft_radix4_f32.c ****       do
 356              		.loc 1 287 7 view .LVU165
 287:../libDaisy/Drivers/CMSIS/DSP/Source/TransformFunctions/arm_cfft_radix4_f32.c ****       do
 357              		.loc 1 287 7 is_stmt 0 view .LVU166
 358 014e 0296     		str	r6, [sp, #8]
 359 0150 ED00     		lsls	r5, r5, #3
 360              	.LVL40:
 287:../libDaisy/Drivers/CMSIS/DSP/Source/TransformFunctions/arm_cfft_radix4_f32.c ****       do
 361              		.loc 1 287 7 view .LVU167
 362 0152 03EB4306 		add	r6, r3, r3, lsl #1
 287:../libDaisy/Drivers/CMSIS/DSP/Source/TransformFunctions/arm_cfft_radix4_f32.c ****       do
 363              		.loc 1 287 9 view .LVU168
 364 0156 4FF0000C 		mov	ip, #0
 365 015a 0195     		str	r5, [sp, #4]
 366 015c 0496     		str	r6, [sp, #16]
 367 015e CDE90532 		strd	r3, r2, [sp, #20]
ARM GAS  /var/folders/6_/psd2b8g56p7696hhrr4ztjs00000gn/T//ccmmdqDi.s 			page 15


 368 0162 CDE90714 		strd	r1, r4, [sp, #28]
 369              	.LVL41:
 370              	.L6:
 288:../libDaisy/Drivers/CMSIS/DSP/Source/TransformFunctions/arm_cfft_radix4_f32.c ****       {
 371              		.loc 1 288 7 is_stmt 1 view .LVU169
 291:../libDaisy/Drivers/CMSIS/DSP/Source/TransformFunctions/arm_cfft_radix4_f32.c ****          ia3 = ia2 + ia1;
 372              		.loc 1 291 10 view .LVU170
 292:../libDaisy/Drivers/CMSIS/DSP/Source/TransformFunctions/arm_cfft_radix4_f32.c ****          co1 = pCoef[ia1 * 2u];
 373              		.loc 1 292 10 view .LVU171
 293:../libDaisy/Drivers/CMSIS/DSP/Source/TransformFunctions/arm_cfft_radix4_f32.c ****          si1 = pCoef[(ia1 * 2u) + 1u];
 374              		.loc 1 293 10 view .LVU172
 375 0166 019B     		ldr	r3, [sp, #4]
 376 0168 3D1D     		adds	r5, r7, #4
 293:../libDaisy/Drivers/CMSIS/DSP/Source/TransformFunctions/arm_cfft_radix4_f32.c ****          si1 = pCoef[(ia1 * 2u) + 1u];
 377              		.loc 1 293 14 is_stmt 0 view .LVU173
 378 016a 5EED01AA 		vldr.32	s21, [lr, #-4]
 379              	.LVL42:
 294:../libDaisy/Drivers/CMSIS/DSP/Source/TransformFunctions/arm_cfft_radix4_f32.c ****          co2 = pCoef[ia2 * 2u];
 380              		.loc 1 294 10 is_stmt 1 view .LVU174
 298:../libDaisy/Drivers/CMSIS/DSP/Source/TransformFunctions/arm_cfft_radix4_f32.c **** 
 381              		.loc 1 298 14 is_stmt 0 view .LVU175
 382 016e 3C46     		mov	r4, r7
 383 0170 D919     		adds	r1, r3, r7
 384 0172 03EB0A02 		add	r2, r3, r10
 294:../libDaisy/Drivers/CMSIS/DSP/Source/TransformFunctions/arm_cfft_radix4_f32.c ****          co2 = pCoef[ia2 * 2u];
 385              		.loc 1 294 14 view .LVU176
 386 0176 9EED00AA 		vldr.32	s20, [lr]
 387              	.LVL43:
 295:../libDaisy/Drivers/CMSIS/DSP/Source/TransformFunctions/arm_cfft_radix4_f32.c ****          si2 = pCoef[(ia2 * 2u) + 1u];
 388              		.loc 1 295 10 is_stmt 1 view .LVU177
 298:../libDaisy/Drivers/CMSIS/DSP/Source/TransformFunctions/arm_cfft_radix4_f32.c **** 
 389              		.loc 1 298 14 is_stmt 0 view .LVU178
 390 017a 5346     		mov	r3, r10
 295:../libDaisy/Drivers/CMSIS/DSP/Source/TransformFunctions/arm_cfft_radix4_f32.c ****          si2 = pCoef[(ia2 * 2u) + 1u];
 391              		.loc 1 295 14 view .LVU179
 392 017c 58ED019A 		vldr.32	s19, [r8, #-4]
 393              	.LVL44:
 296:../libDaisy/Drivers/CMSIS/DSP/Source/TransformFunctions/arm_cfft_radix4_f32.c ****          co3 = pCoef[ia3 * 2u];
 394              		.loc 1 296 10 is_stmt 1 view .LVU180
 302:../libDaisy/Drivers/CMSIS/DSP/Source/TransformFunctions/arm_cfft_radix4_f32.c **** 
 303:../libDaisy/Drivers/CMSIS/DSP/Source/TransformFunctions/arm_cfft_radix4_f32.c ****          i0 = j;
 395              		.loc 1 303 13 is_stmt 0 view .LVU181
 396 0180 6646     		mov	r6, ip
 296:../libDaisy/Drivers/CMSIS/DSP/Source/TransformFunctions/arm_cfft_radix4_f32.c ****          co3 = pCoef[ia3 * 2u];
 397              		.loc 1 296 14 view .LVU182
 398 0182 98ED009A 		vldr.32	s18, [r8]
 399              	.LVL45:
 297:../libDaisy/Drivers/CMSIS/DSP/Source/TransformFunctions/arm_cfft_radix4_f32.c ****          si3 = pCoef[(ia3 * 2u) + 1u];
 400              		.loc 1 297 10 is_stmt 1 view .LVU183
 297:../libDaisy/Drivers/CMSIS/DSP/Source/TransformFunctions/arm_cfft_radix4_f32.c ****          si3 = pCoef[(ia3 * 2u) + 1u];
 401              		.loc 1 297 14 is_stmt 0 view .LVU184
 402 0186 59ED018A 		vldr.32	s17, [r9, #-4]
 403              	.LVL46:
 298:../libDaisy/Drivers/CMSIS/DSP/Source/TransformFunctions/arm_cfft_radix4_f32.c **** 
 404              		.loc 1 298 10 is_stmt 1 view .LVU185
 298:../libDaisy/Drivers/CMSIS/DSP/Source/TransformFunctions/arm_cfft_radix4_f32.c **** 
 405              		.loc 1 298 14 is_stmt 0 view .LVU186
ARM GAS  /var/folders/6_/psd2b8g56p7696hhrr4ztjs00000gn/T//ccmmdqDi.s 			page 16


 406 018a 99ED008A 		vldr.32	s16, [r9]
 407              	.LVL47:
 301:../libDaisy/Drivers/CMSIS/DSP/Source/TransformFunctions/arm_cfft_radix4_f32.c **** 
 408              		.loc 1 301 10 is_stmt 1 view .LVU187
 409              		.loc 1 303 10 view .LVU188
 410              	.L5:
 304:../libDaisy/Drivers/CMSIS/DSP/Source/TransformFunctions/arm_cfft_radix4_f32.c ****          do
 411              		.loc 1 304 10 view .LVU189
 305:../libDaisy/Drivers/CMSIS/DSP/Source/TransformFunctions/arm_cfft_radix4_f32.c ****          {
 306:../libDaisy/Drivers/CMSIS/DSP/Source/TransformFunctions/arm_cfft_radix4_f32.c ****             /*  index calculation for the input as, */
 307:../libDaisy/Drivers/CMSIS/DSP/Source/TransformFunctions/arm_cfft_radix4_f32.c ****             /*  pSrc[i0 + 0], pSrc[i0 + fftLen/4], pSrc[i0 + fftLen/2], pSrc[i0 + 3fftLen/4] */
 308:../libDaisy/Drivers/CMSIS/DSP/Source/TransformFunctions/arm_cfft_radix4_f32.c ****             i1 = i0 + n2;
 412              		.loc 1 308 13 view .LVU190
 309:../libDaisy/Drivers/CMSIS/DSP/Source/TransformFunctions/arm_cfft_radix4_f32.c ****             i2 = i1 + n2;
 413              		.loc 1 309 13 view .LVU191
 310:../libDaisy/Drivers/CMSIS/DSP/Source/TransformFunctions/arm_cfft_radix4_f32.c ****             i3 = i2 + n2;
 414              		.loc 1 310 13 view .LVU192
 311:../libDaisy/Drivers/CMSIS/DSP/Source/TransformFunctions/arm_cfft_radix4_f32.c **** 
 312:../libDaisy/Drivers/CMSIS/DSP/Source/TransformFunctions/arm_cfft_radix4_f32.c ****             xaIn = pSrc[(2u * i0)];
 415              		.loc 1 312 13 view .LVU193
 416              		.loc 1 312 18 is_stmt 0 view .LVU194
 417 018e 15ED017A 		vldr.32	s14, [r5, #-4]
 418              	.LVL48:
 313:../libDaisy/Drivers/CMSIS/DSP/Source/TransformFunctions/arm_cfft_radix4_f32.c ****             yaIn = pSrc[(2u * i0) + 1u];
 419              		.loc 1 313 13 is_stmt 1 view .LVU195
 314:../libDaisy/Drivers/CMSIS/DSP/Source/TransformFunctions/arm_cfft_radix4_f32.c **** 
 315:../libDaisy/Drivers/CMSIS/DSP/Source/TransformFunctions/arm_cfft_radix4_f32.c ****             xbIn = pSrc[(2u * i1)];
 316:../libDaisy/Drivers/CMSIS/DSP/Source/TransformFunctions/arm_cfft_radix4_f32.c ****             ybIn = pSrc[(2u * i1) + 1u];
 317:../libDaisy/Drivers/CMSIS/DSP/Source/TransformFunctions/arm_cfft_radix4_f32.c **** 
 318:../libDaisy/Drivers/CMSIS/DSP/Source/TransformFunctions/arm_cfft_radix4_f32.c ****             xcIn = pSrc[(2u * i2)];
 319:../libDaisy/Drivers/CMSIS/DSP/Source/TransformFunctions/arm_cfft_radix4_f32.c ****             ycIn = pSrc[(2u * i2) + 1u];
 320:../libDaisy/Drivers/CMSIS/DSP/Source/TransformFunctions/arm_cfft_radix4_f32.c **** 
 321:../libDaisy/Drivers/CMSIS/DSP/Source/TransformFunctions/arm_cfft_radix4_f32.c ****             xdIn = pSrc[(2u * i3)];
 322:../libDaisy/Drivers/CMSIS/DSP/Source/TransformFunctions/arm_cfft_radix4_f32.c ****             ydIn = pSrc[(2u * i3) + 1u];
 323:../libDaisy/Drivers/CMSIS/DSP/Source/TransformFunctions/arm_cfft_radix4_f32.c **** 
 324:../libDaisy/Drivers/CMSIS/DSP/Source/TransformFunctions/arm_cfft_radix4_f32.c ****             /* xa - xc */
 325:../libDaisy/Drivers/CMSIS/DSP/Source/TransformFunctions/arm_cfft_radix4_f32.c ****             Xaminusc = xaIn - xcIn;
 326:../libDaisy/Drivers/CMSIS/DSP/Source/TransformFunctions/arm_cfft_radix4_f32.c ****             /* (xb - xd) */
 327:../libDaisy/Drivers/CMSIS/DSP/Source/TransformFunctions/arm_cfft_radix4_f32.c ****             Xbminusd = xbIn - xdIn;
 328:../libDaisy/Drivers/CMSIS/DSP/Source/TransformFunctions/arm_cfft_radix4_f32.c ****             /* ya - yc */
 329:../libDaisy/Drivers/CMSIS/DSP/Source/TransformFunctions/arm_cfft_radix4_f32.c ****             Yaminusc = yaIn - ycIn;
 330:../libDaisy/Drivers/CMSIS/DSP/Source/TransformFunctions/arm_cfft_radix4_f32.c ****             /* (yb - yd) */
 331:../libDaisy/Drivers/CMSIS/DSP/Source/TransformFunctions/arm_cfft_radix4_f32.c ****             Ybminusd = ybIn - ydIn;
 332:../libDaisy/Drivers/CMSIS/DSP/Source/TransformFunctions/arm_cfft_radix4_f32.c **** 
 333:../libDaisy/Drivers/CMSIS/DSP/Source/TransformFunctions/arm_cfft_radix4_f32.c ****             /* xa + xc */
 334:../libDaisy/Drivers/CMSIS/DSP/Source/TransformFunctions/arm_cfft_radix4_f32.c ****             Xaplusc = xaIn + xcIn;
 335:../libDaisy/Drivers/CMSIS/DSP/Source/TransformFunctions/arm_cfft_radix4_f32.c ****             /* xb + xd */
 336:../libDaisy/Drivers/CMSIS/DSP/Source/TransformFunctions/arm_cfft_radix4_f32.c ****             Xbplusd = xbIn + xdIn;
 337:../libDaisy/Drivers/CMSIS/DSP/Source/TransformFunctions/arm_cfft_radix4_f32.c ****             /* ya + yc */
 338:../libDaisy/Drivers/CMSIS/DSP/Source/TransformFunctions/arm_cfft_radix4_f32.c ****             Yaplusc = yaIn + ycIn;
 339:../libDaisy/Drivers/CMSIS/DSP/Source/TransformFunctions/arm_cfft_radix4_f32.c ****             /* yb + yd */
 340:../libDaisy/Drivers/CMSIS/DSP/Source/TransformFunctions/arm_cfft_radix4_f32.c ****             Ybplusd = ybIn + ydIn;
 341:../libDaisy/Drivers/CMSIS/DSP/Source/TransformFunctions/arm_cfft_radix4_f32.c **** 
 342:../libDaisy/Drivers/CMSIS/DSP/Source/TransformFunctions/arm_cfft_radix4_f32.c ****             /* (xa - xc) + (yb - yd) */
 343:../libDaisy/Drivers/CMSIS/DSP/Source/TransformFunctions/arm_cfft_radix4_f32.c ****             Xb12C_out = (Xaminusc + Ybminusd);
 344:../libDaisy/Drivers/CMSIS/DSP/Source/TransformFunctions/arm_cfft_radix4_f32.c ****             /* (ya - yc) -  (xb - xd) */
 345:../libDaisy/Drivers/CMSIS/DSP/Source/TransformFunctions/arm_cfft_radix4_f32.c ****             Yb12C_out = (Yaminusc - Xbminusd);
ARM GAS  /var/folders/6_/psd2b8g56p7696hhrr4ztjs00000gn/T//ccmmdqDi.s 			page 17


 346:../libDaisy/Drivers/CMSIS/DSP/Source/TransformFunctions/arm_cfft_radix4_f32.c ****             /* xa + xc -(xb + xd) */
 347:../libDaisy/Drivers/CMSIS/DSP/Source/TransformFunctions/arm_cfft_radix4_f32.c ****             Xc12C_out = (Xaplusc - Xbplusd);
 348:../libDaisy/Drivers/CMSIS/DSP/Source/TransformFunctions/arm_cfft_radix4_f32.c ****             /* (ya + yc) - (yb + yd) */
 349:../libDaisy/Drivers/CMSIS/DSP/Source/TransformFunctions/arm_cfft_radix4_f32.c ****             Yc12C_out = (Yaplusc - Ybplusd);
 350:../libDaisy/Drivers/CMSIS/DSP/Source/TransformFunctions/arm_cfft_radix4_f32.c ****             /* (xa - xc) - (yb - yd) */
 351:../libDaisy/Drivers/CMSIS/DSP/Source/TransformFunctions/arm_cfft_radix4_f32.c ****             Xd12C_out = (Xaminusc - Ybminusd);
 352:../libDaisy/Drivers/CMSIS/DSP/Source/TransformFunctions/arm_cfft_radix4_f32.c ****             /* (ya - yc) +  (xb - xd) */
 353:../libDaisy/Drivers/CMSIS/DSP/Source/TransformFunctions/arm_cfft_radix4_f32.c ****             Yd12C_out = (Xbminusd + Yaminusc);
 354:../libDaisy/Drivers/CMSIS/DSP/Source/TransformFunctions/arm_cfft_radix4_f32.c **** 
 355:../libDaisy/Drivers/CMSIS/DSP/Source/TransformFunctions/arm_cfft_radix4_f32.c ****             pSrc[(2u * i0)] = Xaplusc + Xbplusd;
 356:../libDaisy/Drivers/CMSIS/DSP/Source/TransformFunctions/arm_cfft_radix4_f32.c ****             pSrc[(2u * i0) + 1u] = Yaplusc + Ybplusd;
 357:../libDaisy/Drivers/CMSIS/DSP/Source/TransformFunctions/arm_cfft_radix4_f32.c **** 
 358:../libDaisy/Drivers/CMSIS/DSP/Source/TransformFunctions/arm_cfft_radix4_f32.c ****             Xb12_out = Xb12C_out * co1;
 359:../libDaisy/Drivers/CMSIS/DSP/Source/TransformFunctions/arm_cfft_radix4_f32.c ****             Yb12_out = Yb12C_out * co1;
 360:../libDaisy/Drivers/CMSIS/DSP/Source/TransformFunctions/arm_cfft_radix4_f32.c ****             Xc12_out = Xc12C_out * co2;
 361:../libDaisy/Drivers/CMSIS/DSP/Source/TransformFunctions/arm_cfft_radix4_f32.c ****             Yc12_out = Yc12C_out * co2;
 362:../libDaisy/Drivers/CMSIS/DSP/Source/TransformFunctions/arm_cfft_radix4_f32.c ****             Xd12_out = Xd12C_out * co3;
 363:../libDaisy/Drivers/CMSIS/DSP/Source/TransformFunctions/arm_cfft_radix4_f32.c ****             Yd12_out = Yd12C_out * co3;
 364:../libDaisy/Drivers/CMSIS/DSP/Source/TransformFunctions/arm_cfft_radix4_f32.c **** 
 365:../libDaisy/Drivers/CMSIS/DSP/Source/TransformFunctions/arm_cfft_radix4_f32.c ****             /* xb' = (xa+yb-xc-yd)co1 - (ya-xb-yc+xd)(si1) */
 366:../libDaisy/Drivers/CMSIS/DSP/Source/TransformFunctions/arm_cfft_radix4_f32.c ****             //Xb12_out -= Yb12C_out * si1;
 367:../libDaisy/Drivers/CMSIS/DSP/Source/TransformFunctions/arm_cfft_radix4_f32.c ****             p0 = Yb12C_out * si1;
 368:../libDaisy/Drivers/CMSIS/DSP/Source/TransformFunctions/arm_cfft_radix4_f32.c ****             /* yb' = (ya-xb-yc+xd)co1 + (xa+yb-xc-yd)(si1) */
 369:../libDaisy/Drivers/CMSIS/DSP/Source/TransformFunctions/arm_cfft_radix4_f32.c ****             //Yb12_out += Xb12C_out * si1;
 370:../libDaisy/Drivers/CMSIS/DSP/Source/TransformFunctions/arm_cfft_radix4_f32.c ****             p1 = Xb12C_out * si1;
 371:../libDaisy/Drivers/CMSIS/DSP/Source/TransformFunctions/arm_cfft_radix4_f32.c ****             /* xc' = (xa-xb+xc-xd)co2 - (ya-yb+yc-yd)(si2) */
 372:../libDaisy/Drivers/CMSIS/DSP/Source/TransformFunctions/arm_cfft_radix4_f32.c ****             //Xc12_out -= Yc12C_out * si2;
 373:../libDaisy/Drivers/CMSIS/DSP/Source/TransformFunctions/arm_cfft_radix4_f32.c ****             p2 = Yc12C_out * si2;
 374:../libDaisy/Drivers/CMSIS/DSP/Source/TransformFunctions/arm_cfft_radix4_f32.c ****             /* yc' = (ya-yb+yc-yd)co2 + (xa-xb+xc-xd)(si2) */
 375:../libDaisy/Drivers/CMSIS/DSP/Source/TransformFunctions/arm_cfft_radix4_f32.c ****             //Yc12_out += Xc12C_out * si2;
 376:../libDaisy/Drivers/CMSIS/DSP/Source/TransformFunctions/arm_cfft_radix4_f32.c ****             p3 = Xc12C_out * si2;
 377:../libDaisy/Drivers/CMSIS/DSP/Source/TransformFunctions/arm_cfft_radix4_f32.c ****             /* xd' = (xa-yb-xc+yd)co3 - (ya+xb-yc-xd)(si3) */
 378:../libDaisy/Drivers/CMSIS/DSP/Source/TransformFunctions/arm_cfft_radix4_f32.c ****             //Xd12_out -= Yd12C_out * si3;
 379:../libDaisy/Drivers/CMSIS/DSP/Source/TransformFunctions/arm_cfft_radix4_f32.c ****             p4 = Yd12C_out * si3;
 380:../libDaisy/Drivers/CMSIS/DSP/Source/TransformFunctions/arm_cfft_radix4_f32.c ****             /* yd' = (ya+xb-yc-xd)co3 + (xa-yb-xc+yd)(si3) */
 381:../libDaisy/Drivers/CMSIS/DSP/Source/TransformFunctions/arm_cfft_radix4_f32.c ****             //Yd12_out += Xd12C_out * si3;
 382:../libDaisy/Drivers/CMSIS/DSP/Source/TransformFunctions/arm_cfft_radix4_f32.c ****             p5 = Xd12C_out * si3;
 383:../libDaisy/Drivers/CMSIS/DSP/Source/TransformFunctions/arm_cfft_radix4_f32.c **** 
 384:../libDaisy/Drivers/CMSIS/DSP/Source/TransformFunctions/arm_cfft_radix4_f32.c ****             Xb12_out += p0;
 385:../libDaisy/Drivers/CMSIS/DSP/Source/TransformFunctions/arm_cfft_radix4_f32.c ****             Yb12_out -= p1;
 386:../libDaisy/Drivers/CMSIS/DSP/Source/TransformFunctions/arm_cfft_radix4_f32.c ****             Xc12_out += p2;
 387:../libDaisy/Drivers/CMSIS/DSP/Source/TransformFunctions/arm_cfft_radix4_f32.c ****             Yc12_out -= p3;
 388:../libDaisy/Drivers/CMSIS/DSP/Source/TransformFunctions/arm_cfft_radix4_f32.c ****             Xd12_out += p4;
 389:../libDaisy/Drivers/CMSIS/DSP/Source/TransformFunctions/arm_cfft_radix4_f32.c ****             Yd12_out -= p5;
 390:../libDaisy/Drivers/CMSIS/DSP/Source/TransformFunctions/arm_cfft_radix4_f32.c **** 
 391:../libDaisy/Drivers/CMSIS/DSP/Source/TransformFunctions/arm_cfft_radix4_f32.c ****             /* xc' = (xa-xb+xc-xd)co2 + (ya-yb+yc-yd)(si2) */
 392:../libDaisy/Drivers/CMSIS/DSP/Source/TransformFunctions/arm_cfft_radix4_f32.c ****             pSrc[2u * i1] = Xc12_out;
 393:../libDaisy/Drivers/CMSIS/DSP/Source/TransformFunctions/arm_cfft_radix4_f32.c **** 
 394:../libDaisy/Drivers/CMSIS/DSP/Source/TransformFunctions/arm_cfft_radix4_f32.c ****             /* yc' = (ya-yb+yc-yd)co2 - (xa-xb+xc-xd)(si2) */
 395:../libDaisy/Drivers/CMSIS/DSP/Source/TransformFunctions/arm_cfft_radix4_f32.c ****             pSrc[(2u * i1) + 1u] = Yc12_out;
 396:../libDaisy/Drivers/CMSIS/DSP/Source/TransformFunctions/arm_cfft_radix4_f32.c **** 
 397:../libDaisy/Drivers/CMSIS/DSP/Source/TransformFunctions/arm_cfft_radix4_f32.c ****             /* xb' = (xa+yb-xc-yd)co1 + (ya-xb-yc+xd)(si1) */
 398:../libDaisy/Drivers/CMSIS/DSP/Source/TransformFunctions/arm_cfft_radix4_f32.c ****             pSrc[2u * i2] = Xb12_out;
 399:../libDaisy/Drivers/CMSIS/DSP/Source/TransformFunctions/arm_cfft_radix4_f32.c **** 
 400:../libDaisy/Drivers/CMSIS/DSP/Source/TransformFunctions/arm_cfft_radix4_f32.c ****             /* yb' = (ya-xb-yc+xd)co1 - (xa+yb-xc-yd)(si1) */
 401:../libDaisy/Drivers/CMSIS/DSP/Source/TransformFunctions/arm_cfft_radix4_f32.c ****             pSrc[(2u * i2) + 1u] = Yb12_out;
 402:../libDaisy/Drivers/CMSIS/DSP/Source/TransformFunctions/arm_cfft_radix4_f32.c **** 
ARM GAS  /var/folders/6_/psd2b8g56p7696hhrr4ztjs00000gn/T//ccmmdqDi.s 			page 18


 403:../libDaisy/Drivers/CMSIS/DSP/Source/TransformFunctions/arm_cfft_radix4_f32.c ****             /* xd' = (xa-yb-xc+yd)co3 + (ya+xb-yc-xd)(si3) */
 404:../libDaisy/Drivers/CMSIS/DSP/Source/TransformFunctions/arm_cfft_radix4_f32.c ****             pSrc[2u * i3] = Xd12_out;
 405:../libDaisy/Drivers/CMSIS/DSP/Source/TransformFunctions/arm_cfft_radix4_f32.c **** 
 406:../libDaisy/Drivers/CMSIS/DSP/Source/TransformFunctions/arm_cfft_radix4_f32.c ****             /* yd' = (ya+xb-yc-xd)co3 - (xa-yb-xc+yd)(si3) */
 407:../libDaisy/Drivers/CMSIS/DSP/Source/TransformFunctions/arm_cfft_radix4_f32.c ****             pSrc[(2u * i3) + 1u] = Yd12_out;
 408:../libDaisy/Drivers/CMSIS/DSP/Source/TransformFunctions/arm_cfft_radix4_f32.c **** 
 409:../libDaisy/Drivers/CMSIS/DSP/Source/TransformFunctions/arm_cfft_radix4_f32.c ****             i0 += n1;
 420              		.loc 1 409 16 is_stmt 0 view .LVU196
 421 0192 0644     		add	r6, r6, r0
 422              	.LVL49:
 313:../libDaisy/Drivers/CMSIS/DSP/Source/TransformFunctions/arm_cfft_radix4_f32.c ****             yaIn = pSrc[(2u * i0) + 1u];
 423              		.loc 1 313 18 view .LVU197
 424 0194 D4ED017A 		vldr.32	s15, [r4, #4]
 425              	.LVL50:
 315:../libDaisy/Drivers/CMSIS/DSP/Source/TransformFunctions/arm_cfft_radix4_f32.c ****             ybIn = pSrc[(2u * i1) + 1u];
 426              		.loc 1 315 13 is_stmt 1 view .LVU198
 318:../libDaisy/Drivers/CMSIS/DSP/Source/TransformFunctions/arm_cfft_radix4_f32.c ****             ycIn = pSrc[(2u * i2) + 1u];
 427              		.loc 1 318 18 is_stmt 0 view .LVU199
 428 0198 93ED002A 		vldr.32	s4, [r3]
 410:../libDaisy/Drivers/CMSIS/DSP/Source/TransformFunctions/arm_cfft_radix4_f32.c ****          } while (i0 < fftLen);
 429              		.loc 1 410 22 discriminator 1 view .LVU200
 430 019c B345     		cmp	fp, r6
 319:../libDaisy/Drivers/CMSIS/DSP/Source/TransformFunctions/arm_cfft_radix4_f32.c **** 
 431              		.loc 1 319 18 view .LVU201
 432 019e 93ED013A 		vldr.32	s6, [r3, #4]
 321:../libDaisy/Drivers/CMSIS/DSP/Source/TransformFunctions/arm_cfft_radix4_f32.c ****             ydIn = pSrc[(2u * i3) + 1u];
 433              		.loc 1 321 18 view .LVU202
 434 01a2 D2ED002A 		vldr.32	s5, [r2]
 325:../libDaisy/Drivers/CMSIS/DSP/Source/TransformFunctions/arm_cfft_radix4_f32.c ****             /* (xb - xd) */
 435              		.loc 1 325 22 view .LVU203
 436 01a6 37EE426A 		vsub.f32	s12, s14, s4
 322:../libDaisy/Drivers/CMSIS/DSP/Source/TransformFunctions/arm_cfft_radix4_f32.c **** 
 437              		.loc 1 322 18 view .LVU204
 438 01aa D2ED013A 		vldr.32	s7, [r2, #4]
 329:../libDaisy/Drivers/CMSIS/DSP/Source/TransformFunctions/arm_cfft_radix4_f32.c ****             /* (yb - yd) */
 439              		.loc 1 329 22 view .LVU205
 440 01ae 77EEC34A 		vsub.f32	s9, s15, s6
 315:../libDaisy/Drivers/CMSIS/DSP/Source/TransformFunctions/arm_cfft_radix4_f32.c ****             ybIn = pSrc[(2u * i1) + 1u];
 441              		.loc 1 315 18 view .LVU206
 442 01b2 D1ED006A 		vldr.32	s13, [r1]
 443              	.LVL51:
 316:../libDaisy/Drivers/CMSIS/DSP/Source/TransformFunctions/arm_cfft_radix4_f32.c **** 
 444              		.loc 1 316 13 is_stmt 1 view .LVU207
 334:../libDaisy/Drivers/CMSIS/DSP/Source/TransformFunctions/arm_cfft_radix4_f32.c ****             /* xb + xd */
 445              		.loc 1 334 21 is_stmt 0 view .LVU208
 446 01b6 37EE027A 		vadd.f32	s14, s14, s4
 447              	.LVL52:
 316:../libDaisy/Drivers/CMSIS/DSP/Source/TransformFunctions/arm_cfft_radix4_f32.c **** 
 448              		.loc 1 316 18 view .LVU209
 449 01ba 91ED015A 		vldr.32	s10, [r1, #4]
 450              	.LVL53:
 318:../libDaisy/Drivers/CMSIS/DSP/Source/TransformFunctions/arm_cfft_radix4_f32.c ****             ycIn = pSrc[(2u * i2) + 1u];
 451              		.loc 1 318 13 is_stmt 1 view .LVU210
 319:../libDaisy/Drivers/CMSIS/DSP/Source/TransformFunctions/arm_cfft_radix4_f32.c **** 
 452              		.loc 1 319 13 view .LVU211
 321:../libDaisy/Drivers/CMSIS/DSP/Source/TransformFunctions/arm_cfft_radix4_f32.c ****             ydIn = pSrc[(2u * i3) + 1u];
 453              		.loc 1 321 13 view .LVU212
ARM GAS  /var/folders/6_/psd2b8g56p7696hhrr4ztjs00000gn/T//ccmmdqDi.s 			page 19


 322:../libDaisy/Drivers/CMSIS/DSP/Source/TransformFunctions/arm_cfft_radix4_f32.c **** 
 454              		.loc 1 322 13 view .LVU213
 325:../libDaisy/Drivers/CMSIS/DSP/Source/TransformFunctions/arm_cfft_radix4_f32.c ****             /* (xb - xd) */
 455              		.loc 1 325 13 view .LVU214
 327:../libDaisy/Drivers/CMSIS/DSP/Source/TransformFunctions/arm_cfft_radix4_f32.c ****             /* ya - yc */
 456              		.loc 1 327 13 view .LVU215
 338:../libDaisy/Drivers/CMSIS/DSP/Source/TransformFunctions/arm_cfft_radix4_f32.c ****             /* yb + yd */
 457              		.loc 1 338 21 is_stmt 0 view .LVU216
 458 01be 77EE837A 		vadd.f32	s15, s15, s6
 459              	.LVL54:
 327:../libDaisy/Drivers/CMSIS/DSP/Source/TransformFunctions/arm_cfft_radix4_f32.c ****             /* ya - yc */
 460              		.loc 1 327 22 view .LVU217
 461 01c2 76EEE25A 		vsub.f32	s11, s13, s5
 462              	.LVL55:
 329:../libDaisy/Drivers/CMSIS/DSP/Source/TransformFunctions/arm_cfft_radix4_f32.c ****             /* (yb - yd) */
 463              		.loc 1 329 13 is_stmt 1 view .LVU218
 331:../libDaisy/Drivers/CMSIS/DSP/Source/TransformFunctions/arm_cfft_radix4_f32.c **** 
 464              		.loc 1 331 13 view .LVU219
 331:../libDaisy/Drivers/CMSIS/DSP/Source/TransformFunctions/arm_cfft_radix4_f32.c **** 
 465              		.loc 1 331 22 is_stmt 0 view .LVU220
 466 01c6 35EE634A 		vsub.f32	s8, s10, s7
 467              	.LVL56:
 334:../libDaisy/Drivers/CMSIS/DSP/Source/TransformFunctions/arm_cfft_radix4_f32.c ****             /* xb + xd */
 468              		.loc 1 334 13 is_stmt 1 view .LVU221
 336:../libDaisy/Drivers/CMSIS/DSP/Source/TransformFunctions/arm_cfft_radix4_f32.c ****             /* ya + yc */
 469              		.loc 1 336 13 view .LVU222
 336:../libDaisy/Drivers/CMSIS/DSP/Source/TransformFunctions/arm_cfft_radix4_f32.c ****             /* ya + yc */
 470              		.loc 1 336 21 is_stmt 0 view .LVU223
 471 01ca 76EEA26A 		vadd.f32	s13, s13, s5
 472              	.LVL57:
 338:../libDaisy/Drivers/CMSIS/DSP/Source/TransformFunctions/arm_cfft_radix4_f32.c ****             /* yb + yd */
 473              		.loc 1 338 13 is_stmt 1 view .LVU224
 340:../libDaisy/Drivers/CMSIS/DSP/Source/TransformFunctions/arm_cfft_radix4_f32.c **** 
 474              		.loc 1 340 13 view .LVU225
 345:../libDaisy/Drivers/CMSIS/DSP/Source/TransformFunctions/arm_cfft_radix4_f32.c ****             /* xa + xc -(xb + xd) */
 475              		.loc 1 345 23 is_stmt 0 view .LVU226
 476 01ce 74EEE50A 		vsub.f32	s1, s9, s11
 343:../libDaisy/Drivers/CMSIS/DSP/Source/TransformFunctions/arm_cfft_radix4_f32.c ****             /* (ya - yc) -  (xb - xd) */
 477              		.loc 1 343 23 view .LVU227
 478 01d2 36EE040A 		vadd.f32	s0, s12, s8
 353:../libDaisy/Drivers/CMSIS/DSP/Source/TransformFunctions/arm_cfft_radix4_f32.c **** 
 479              		.loc 1 353 23 view .LVU228
 480 01d6 75EEA45A 		vadd.f32	s11, s11, s9
 481              	.LVL58:
 340:../libDaisy/Drivers/CMSIS/DSP/Source/TransformFunctions/arm_cfft_radix4_f32.c **** 
 482              		.loc 1 340 21 view .LVU229
 483 01da 35EE235A 		vadd.f32	s10, s10, s7
 484              	.LVL59:
 343:../libDaisy/Drivers/CMSIS/DSP/Source/TransformFunctions/arm_cfft_radix4_f32.c ****             /* (ya - yc) -  (xb - xd) */
 485              		.loc 1 343 13 is_stmt 1 view .LVU230
 345:../libDaisy/Drivers/CMSIS/DSP/Source/TransformFunctions/arm_cfft_radix4_f32.c ****             /* xa + xc -(xb + xd) */
 486              		.loc 1 345 13 view .LVU231
 347:../libDaisy/Drivers/CMSIS/DSP/Source/TransformFunctions/arm_cfft_radix4_f32.c ****             /* (ya + yc) - (yb + yd) */
 487              		.loc 1 347 13 view .LVU232
 351:../libDaisy/Drivers/CMSIS/DSP/Source/TransformFunctions/arm_cfft_radix4_f32.c ****             /* (ya - yc) +  (xb - xd) */
 488              		.loc 1 351 23 is_stmt 0 view .LVU233
 489 01de 36EE446A 		vsub.f32	s12, s12, s8
ARM GAS  /var/folders/6_/psd2b8g56p7696hhrr4ztjs00000gn/T//ccmmdqDi.s 			page 20


 490              	.LVL60:
 347:../libDaisy/Drivers/CMSIS/DSP/Source/TransformFunctions/arm_cfft_radix4_f32.c ****             /* (ya + yc) - (yb + yd) */
 491              		.loc 1 347 23 view .LVU234
 492 01e2 77EE661A 		vsub.f32	s3, s14, s13
 493              	.LVL61:
 349:../libDaisy/Drivers/CMSIS/DSP/Source/TransformFunctions/arm_cfft_radix4_f32.c ****             /* (xa - xc) - (yb - yd) */
 494              		.loc 1 349 13 is_stmt 1 view .LVU235
 349:../libDaisy/Drivers/CMSIS/DSP/Source/TransformFunctions/arm_cfft_radix4_f32.c ****             /* (xa - xc) - (yb - yd) */
 495              		.loc 1 349 23 is_stmt 0 view .LVU236
 496 01e6 37EEC51A 		vsub.f32	s2, s15, s10
 497              	.LVL62:
 351:../libDaisy/Drivers/CMSIS/DSP/Source/TransformFunctions/arm_cfft_radix4_f32.c ****             /* (ya - yc) +  (xb - xd) */
 498              		.loc 1 351 13 is_stmt 1 view .LVU237
 353:../libDaisy/Drivers/CMSIS/DSP/Source/TransformFunctions/arm_cfft_radix4_f32.c **** 
 499              		.loc 1 353 13 view .LVU238
 355:../libDaisy/Drivers/CMSIS/DSP/Source/TransformFunctions/arm_cfft_radix4_f32.c ****             pSrc[(2u * i0) + 1u] = Yaplusc + Ybplusd;
 500              		.loc 1 355 13 view .LVU239
 407:../libDaisy/Drivers/CMSIS/DSP/Source/TransformFunctions/arm_cfft_radix4_f32.c **** 
 501              		.loc 1 407 34 is_stmt 0 view .LVU240
 502 01ea 66EE484A 		vnmul.f32	s9, s12, s16
 503              	.LVL63:
 379:../libDaisy/Drivers/CMSIS/DSP/Source/TransformFunctions/arm_cfft_radix4_f32.c ****             /* yd' = (ya+xb-yc-xd)co3 + (xa-yb-xc+yd)(si3) */
 504              		.loc 1 379 16 view .LVU241
 505 01ee 28EE254A 		vmul.f32	s8, s16, s11
 506              	.LVL64:
 367:../libDaisy/Drivers/CMSIS/DSP/Source/TransformFunctions/arm_cfft_radix4_f32.c ****             /* yb' = (ya-xb-yc+xd)co1 + (xa+yb-xc-yd)(si1) */
 507              		.loc 1 367 16 view .LVU242
 508 01f2 2AEE203A 		vmul.f32	s6, s20, s1
 509              	.LVL65:
 407:../libDaisy/Drivers/CMSIS/DSP/Source/TransformFunctions/arm_cfft_radix4_f32.c **** 
 510              		.loc 1 407 34 view .LVU243
 511 01f6 E8EEA54A 		vfma.f32	s9, s17, s11
 385:../libDaisy/Drivers/CMSIS/DSP/Source/TransformFunctions/arm_cfft_radix4_f32.c ****             Xc12_out += p2;
 512              		.loc 1 385 22 view .LVU244
 513 01fa 60EE4A3A 		vnmul.f32	s7, s0, s20
 514              	.LVL66:
 387:../libDaisy/Drivers/CMSIS/DSP/Source/TransformFunctions/arm_cfft_radix4_f32.c ****             Xd12_out += p4;
 515              		.loc 1 387 22 view .LVU245
 516 01fe 21EEC92A 		vnmul.f32	s4, s3, s18
 517              	.LVL67:
 373:../libDaisy/Drivers/CMSIS/DSP/Source/TransformFunctions/arm_cfft_radix4_f32.c ****             /* yc' = (ya-yb+yc-yd)co2 + (xa-xb+xc-xd)(si2) */
 518              		.loc 1 373 16 view .LVU246
 519 0202 69EE012A 		vmul.f32	s5, s18, s2
 520              	.LVL68:
 388:../libDaisy/Drivers/CMSIS/DSP/Source/TransformFunctions/arm_cfft_radix4_f32.c ****             Yd12_out -= p5;
 521              		.loc 1 388 22 view .LVU247
 522 0206 F0EE445A 		vmov.f32	s11, s8
 523              	.LVL69:
 384:../libDaisy/Drivers/CMSIS/DSP/Source/TransformFunctions/arm_cfft_radix4_f32.c ****             Yb12_out -= p1;
 524              		.loc 1 384 22 view .LVU248
 525 020a AAEE803A 		vfma.f32	s6, s21, s0
 385:../libDaisy/Drivers/CMSIS/DSP/Source/TransformFunctions/arm_cfft_radix4_f32.c ****             Xc12_out += p2;
 526              		.loc 1 385 22 view .LVU249
 527 020e EAEEA03A 		vfma.f32	s7, s21, s1
 387:../libDaisy/Drivers/CMSIS/DSP/Source/TransformFunctions/arm_cfft_radix4_f32.c ****             Xd12_out += p4;
 528              		.loc 1 387 22 view .LVU250
 529 0212 A9EE812A 		vfma.f32	s4, s19, s2
ARM GAS  /var/folders/6_/psd2b8g56p7696hhrr4ztjs00000gn/T//ccmmdqDi.s 			page 21


 386:../libDaisy/Drivers/CMSIS/DSP/Source/TransformFunctions/arm_cfft_radix4_f32.c ****             Yc12_out -= p3;
 530              		.loc 1 386 22 view .LVU251
 531 0216 E9EEA12A 		vfma.f32	s5, s19, s3
 388:../libDaisy/Drivers/CMSIS/DSP/Source/TransformFunctions/arm_cfft_radix4_f32.c ****             Yd12_out -= p5;
 532              		.loc 1 388 22 view .LVU252
 533 021a E8EE865A 		vfma.f32	s11, s17, s12
 355:../libDaisy/Drivers/CMSIS/DSP/Source/TransformFunctions/arm_cfft_radix4_f32.c ****             pSrc[(2u * i0) + 1u] = Yaplusc + Ybplusd;
 534              		.loc 1 355 39 view .LVU253
 535 021e 37EE267A 		vadd.f32	s14, s14, s13
 536              	.LVL70:
 356:../libDaisy/Drivers/CMSIS/DSP/Source/TransformFunctions/arm_cfft_radix4_f32.c **** 
 537              		.loc 1 356 44 view .LVU254
 538 0222 77EE857A 		vadd.f32	s15, s15, s10
 539              	.LVL71:
 355:../libDaisy/Drivers/CMSIS/DSP/Source/TransformFunctions/arm_cfft_radix4_f32.c ****             pSrc[(2u * i0) + 1u] = Yaplusc + Ybplusd;
 540              		.loc 1 355 29 view .LVU255
 541 0226 05ED017A 		vstr.32	s14, [r5, #-4]
 542              	.LVL72:
 356:../libDaisy/Drivers/CMSIS/DSP/Source/TransformFunctions/arm_cfft_radix4_f32.c **** 
 543              		.loc 1 356 13 is_stmt 1 view .LVU256
 544              		.loc 1 410 22 is_stmt 0 discriminator 1 view .LVU257
 545 022a 05EBC005 		add	r5, r5, r0, lsl #3
 356:../libDaisy/Drivers/CMSIS/DSP/Source/TransformFunctions/arm_cfft_radix4_f32.c **** 
 546              		.loc 1 356 34 view .LVU258
 547 022e C4ED017A 		vstr.32	s15, [r4, #4]
 358:../libDaisy/Drivers/CMSIS/DSP/Source/TransformFunctions/arm_cfft_radix4_f32.c ****             Yb12_out = Yb12C_out * co1;
 548              		.loc 1 358 13 is_stmt 1 view .LVU259
 549              	.LVL73:
 359:../libDaisy/Drivers/CMSIS/DSP/Source/TransformFunctions/arm_cfft_radix4_f32.c ****             Xc12_out = Xc12C_out * co2;
 550              		.loc 1 359 13 view .LVU260
 360:../libDaisy/Drivers/CMSIS/DSP/Source/TransformFunctions/arm_cfft_radix4_f32.c ****             Yc12_out = Yc12C_out * co2;
 551              		.loc 1 360 13 view .LVU261
 361:../libDaisy/Drivers/CMSIS/DSP/Source/TransformFunctions/arm_cfft_radix4_f32.c ****             Xd12_out = Xd12C_out * co3;
 552              		.loc 1 361 13 view .LVU262
 362:../libDaisy/Drivers/CMSIS/DSP/Source/TransformFunctions/arm_cfft_radix4_f32.c ****             Yd12_out = Yd12C_out * co3;
 553              		.loc 1 362 13 view .LVU263
 363:../libDaisy/Drivers/CMSIS/DSP/Source/TransformFunctions/arm_cfft_radix4_f32.c **** 
 554              		.loc 1 363 13 view .LVU264
 367:../libDaisy/Drivers/CMSIS/DSP/Source/TransformFunctions/arm_cfft_radix4_f32.c ****             /* yb' = (ya-xb-yc+xd)co1 + (xa+yb-xc-yd)(si1) */
 555              		.loc 1 367 13 view .LVU265
 370:../libDaisy/Drivers/CMSIS/DSP/Source/TransformFunctions/arm_cfft_radix4_f32.c ****             /* xc' = (xa-xb+xc-xd)co2 - (ya-yb+yc-yd)(si2) */
 556              		.loc 1 370 13 view .LVU266
 373:../libDaisy/Drivers/CMSIS/DSP/Source/TransformFunctions/arm_cfft_radix4_f32.c ****             /* yc' = (ya-yb+yc-yd)co2 + (xa-xb+xc-xd)(si2) */
 557              		.loc 1 373 13 view .LVU267
 376:../libDaisy/Drivers/CMSIS/DSP/Source/TransformFunctions/arm_cfft_radix4_f32.c ****             /* xd' = (xa-yb-xc+yd)co3 - (ya+xb-yc-xd)(si3) */
 558              		.loc 1 376 13 view .LVU268
 379:../libDaisy/Drivers/CMSIS/DSP/Source/TransformFunctions/arm_cfft_radix4_f32.c ****             /* yd' = (ya+xb-yc-xd)co3 + (xa-yb-xc+yd)(si3) */
 559              		.loc 1 379 13 view .LVU269
 382:../libDaisy/Drivers/CMSIS/DSP/Source/TransformFunctions/arm_cfft_radix4_f32.c **** 
 560              		.loc 1 382 13 view .LVU270
 384:../libDaisy/Drivers/CMSIS/DSP/Source/TransformFunctions/arm_cfft_radix4_f32.c ****             Yb12_out -= p1;
 561              		.loc 1 384 13 view .LVU271
 385:../libDaisy/Drivers/CMSIS/DSP/Source/TransformFunctions/arm_cfft_radix4_f32.c ****             Xc12_out += p2;
 562              		.loc 1 385 13 view .LVU272
 386:../libDaisy/Drivers/CMSIS/DSP/Source/TransformFunctions/arm_cfft_radix4_f32.c ****             Yc12_out -= p3;
 563              		.loc 1 386 13 view .LVU273
 387:../libDaisy/Drivers/CMSIS/DSP/Source/TransformFunctions/arm_cfft_radix4_f32.c ****             Xd12_out += p4;
ARM GAS  /var/folders/6_/psd2b8g56p7696hhrr4ztjs00000gn/T//ccmmdqDi.s 			page 22


 564              		.loc 1 387 13 view .LVU274
 388:../libDaisy/Drivers/CMSIS/DSP/Source/TransformFunctions/arm_cfft_radix4_f32.c ****             Yd12_out -= p5;
 565              		.loc 1 388 13 view .LVU275
 389:../libDaisy/Drivers/CMSIS/DSP/Source/TransformFunctions/arm_cfft_radix4_f32.c **** 
 566              		.loc 1 389 13 view .LVU276
 392:../libDaisy/Drivers/CMSIS/DSP/Source/TransformFunctions/arm_cfft_radix4_f32.c **** 
 567              		.loc 1 392 13 view .LVU277
 568              		.loc 1 410 22 is_stmt 0 discriminator 1 view .LVU278
 569 0232 04EBC004 		add	r4, r4, r0, lsl #3
 395:../libDaisy/Drivers/CMSIS/DSP/Source/TransformFunctions/arm_cfft_radix4_f32.c **** 
 570              		.loc 1 395 34 view .LVU279
 571 0236 81ED012A 		vstr.32	s4, [r1, #4]
 392:../libDaisy/Drivers/CMSIS/DSP/Source/TransformFunctions/arm_cfft_radix4_f32.c **** 
 572              		.loc 1 392 27 view .LVU280
 573 023a C1ED002A 		vstr.32	s5, [r1]
 395:../libDaisy/Drivers/CMSIS/DSP/Source/TransformFunctions/arm_cfft_radix4_f32.c **** 
 574              		.loc 1 395 13 is_stmt 1 view .LVU281
 398:../libDaisy/Drivers/CMSIS/DSP/Source/TransformFunctions/arm_cfft_radix4_f32.c **** 
 575              		.loc 1 398 13 view .LVU282
 576              		.loc 1 410 22 is_stmt 0 discriminator 1 view .LVU283
 577 023e 01EBC001 		add	r1, r1, r0, lsl #3
 398:../libDaisy/Drivers/CMSIS/DSP/Source/TransformFunctions/arm_cfft_radix4_f32.c **** 
 578              		.loc 1 398 27 view .LVU284
 579 0242 83ED003A 		vstr.32	s6, [r3]
 401:../libDaisy/Drivers/CMSIS/DSP/Source/TransformFunctions/arm_cfft_radix4_f32.c **** 
 580              		.loc 1 401 13 is_stmt 1 view .LVU285
 401:../libDaisy/Drivers/CMSIS/DSP/Source/TransformFunctions/arm_cfft_radix4_f32.c **** 
 581              		.loc 1 401 34 is_stmt 0 view .LVU286
 582 0246 C3ED013A 		vstr.32	s7, [r3, #4]
 404:../libDaisy/Drivers/CMSIS/DSP/Source/TransformFunctions/arm_cfft_radix4_f32.c **** 
 583              		.loc 1 404 13 is_stmt 1 view .LVU287
 584              		.loc 1 410 22 is_stmt 0 discriminator 1 view .LVU288
 585 024a 03EBC003 		add	r3, r3, r0, lsl #3
 404:../libDaisy/Drivers/CMSIS/DSP/Source/TransformFunctions/arm_cfft_radix4_f32.c **** 
 586              		.loc 1 404 27 view .LVU289
 587 024e C2ED005A 		vstr.32	s11, [r2]
 407:../libDaisy/Drivers/CMSIS/DSP/Source/TransformFunctions/arm_cfft_radix4_f32.c **** 
 588              		.loc 1 407 13 is_stmt 1 view .LVU290
 407:../libDaisy/Drivers/CMSIS/DSP/Source/TransformFunctions/arm_cfft_radix4_f32.c **** 
 589              		.loc 1 407 34 is_stmt 0 view .LVU291
 590 0252 C2ED014A 		vstr.32	s9, [r2, #4]
 409:../libDaisy/Drivers/CMSIS/DSP/Source/TransformFunctions/arm_cfft_radix4_f32.c ****          } while (i0 < fftLen);
 591              		.loc 1 409 13 is_stmt 1 view .LVU292
 592              	.LVL74:
 593              		.loc 1 410 22 discriminator 1 view .LVU293
 594 0256 02EBC002 		add	r2, r2, r0, lsl #3
 595 025a 98D8     		bhi	.L5
 411:../libDaisy/Drivers/CMSIS/DSP/Source/TransformFunctions/arm_cfft_radix4_f32.c ****          j++;
 596              		.loc 1 411 10 view .LVU294
 412:../libDaisy/Drivers/CMSIS/DSP/Source/TransformFunctions/arm_cfft_radix4_f32.c ****       } while (j <= (n2 - 1u));
 597              		.loc 1 412 18 is_stmt 0 view .LVU295
 598 025c 039B     		ldr	r3, [sp, #12]
 411:../libDaisy/Drivers/CMSIS/DSP/Source/TransformFunctions/arm_cfft_radix4_f32.c ****          j++;
 599              		.loc 1 411 11 view .LVU296
 600 025e 0CF1010C 		add	ip, ip, #1
 601              	.LVL75:
 602              		.loc 1 412 18 is_stmt 1 view .LVU297
ARM GAS  /var/folders/6_/psd2b8g56p7696hhrr4ztjs00000gn/T//ccmmdqDi.s 			page 23


 603 0262 0837     		adds	r7, r7, #8
 604 0264 0AF1080A 		add	r10, r10, #8
 605 0268 9E44     		add	lr, lr, r3
 606 026a 029B     		ldr	r3, [sp, #8]
 607 026c 9844     		add	r8, r8, r3
 608 026e 049B     		ldr	r3, [sp, #16]
 609 0270 09EBC309 		add	r9, r9, r3, lsl #3
 610 0274 009B     		ldr	r3, [sp]
 611 0276 6345     		cmp	r3, ip
 612 0278 7FF475AF 		bne	.L6
 413:../libDaisy/Drivers/CMSIS/DSP/Source/TransformFunctions/arm_cfft_radix4_f32.c ****       twidCoefModifier <<= 2u;
 613              		.loc 1 413 24 is_stmt 0 view .LVU298
 614 027c DDE90532 		ldrd	r3, r2, [sp, #20]
 615 0280 DDE90714 		ldrd	r1, r4, [sp, #28]
 616              		.loc 1 413 7 is_stmt 1 view .LVU299
 279:../libDaisy/Drivers/CMSIS/DSP/Source/TransformFunctions/arm_cfft_radix4_f32.c ****    {
 617              		.loc 1 279 37 is_stmt 0 discriminator 2 view .LVU300
 618 0284 9208     		lsrs	r2, r2, #2
 619              		.loc 1 413 24 view .LVU301
 620 0286 9B00     		lsls	r3, r3, #2
 279:../libDaisy/Drivers/CMSIS/DSP/Source/TransformFunctions/arm_cfft_radix4_f32.c ****    {
 621              		.loc 1 279 29 discriminator 1 view .LVU302
 622 0288 042A     		cmp	r2, #4
 623              		.loc 1 413 24 view .LVU303
 624 028a 9BB2     		uxth	r3, r3
 625              	.LVL76:
 279:../libDaisy/Drivers/CMSIS/DSP/Source/TransformFunctions/arm_cfft_radix4_f32.c ****    {
 626              		.loc 1 279 37 is_stmt 1 discriminator 2 view .LVU304
 279:../libDaisy/Drivers/CMSIS/DSP/Source/TransformFunctions/arm_cfft_radix4_f32.c ****    {
 627              		.loc 1 279 29 discriminator 1 view .LVU305
 628 028c 3FF652AF 		bhi	.L7
 629 0290 0998     		ldr	r0, [sp, #36]
 630              	.LVL77:
 279:../libDaisy/Drivers/CMSIS/DSP/Source/TransformFunctions/arm_cfft_radix4_f32.c ****    {
 631              		.loc 1 279 29 is_stmt 0 discriminator 1 view .LVU306
 632 0292 A446     		mov	ip, r4
 633              	.LVL78:
 634              	.L8:
 279:../libDaisy/Drivers/CMSIS/DSP/Source/TransformFunctions/arm_cfft_radix4_f32.c ****    {
 635              		.loc 1 279 29 discriminator 1 view .LVU307
 636 0294 0CF12003 		add	r3, ip, #32
 637              	.L4:
 638              	.LVL79:
 414:../libDaisy/Drivers/CMSIS/DSP/Source/TransformFunctions/arm_cfft_radix4_f32.c ****    }
 415:../libDaisy/Drivers/CMSIS/DSP/Source/TransformFunctions/arm_cfft_radix4_f32.c **** 
 416:../libDaisy/Drivers/CMSIS/DSP/Source/TransformFunctions/arm_cfft_radix4_f32.c ****    j = fftLen >> 2;
 417:../libDaisy/Drivers/CMSIS/DSP/Source/TransformFunctions/arm_cfft_radix4_f32.c ****    ptr1 = &pSrc[0];
 418:../libDaisy/Drivers/CMSIS/DSP/Source/TransformFunctions/arm_cfft_radix4_f32.c **** 
 419:../libDaisy/Drivers/CMSIS/DSP/Source/TransformFunctions/arm_cfft_radix4_f32.c ****    /*  Calculations of last stage */
 420:../libDaisy/Drivers/CMSIS/DSP/Source/TransformFunctions/arm_cfft_radix4_f32.c ****    do
 639              		.loc 1 420 4 is_stmt 1 view .LVU308
 421:../libDaisy/Drivers/CMSIS/DSP/Source/TransformFunctions/arm_cfft_radix4_f32.c ****    {
 422:../libDaisy/Drivers/CMSIS/DSP/Source/TransformFunctions/arm_cfft_radix4_f32.c ****       xaIn = ptr1[0];
 640              		.loc 1 422 7 view .LVU309
 423:../libDaisy/Drivers/CMSIS/DSP/Source/TransformFunctions/arm_cfft_radix4_f32.c ****       yaIn = ptr1[1];
 424:../libDaisy/Drivers/CMSIS/DSP/Source/TransformFunctions/arm_cfft_radix4_f32.c ****       xbIn = ptr1[2];
 425:../libDaisy/Drivers/CMSIS/DSP/Source/TransformFunctions/arm_cfft_radix4_f32.c ****       ybIn = ptr1[3];
ARM GAS  /var/folders/6_/psd2b8g56p7696hhrr4ztjs00000gn/T//ccmmdqDi.s 			page 24


 426:../libDaisy/Drivers/CMSIS/DSP/Source/TransformFunctions/arm_cfft_radix4_f32.c ****       xcIn = ptr1[4];
 641              		.loc 1 426 12 is_stmt 0 view .LVU310
 642 0298 53ED045A 		vldr.32	s11, [r3, #-16]
 427:../libDaisy/Drivers/CMSIS/DSP/Source/TransformFunctions/arm_cfft_radix4_f32.c ****       ycIn = ptr1[5];
 428:../libDaisy/Drivers/CMSIS/DSP/Source/TransformFunctions/arm_cfft_radix4_f32.c ****       xdIn = ptr1[6];
 429:../libDaisy/Drivers/CMSIS/DSP/Source/TransformFunctions/arm_cfft_radix4_f32.c ****       ydIn = ptr1[7];
 430:../libDaisy/Drivers/CMSIS/DSP/Source/TransformFunctions/arm_cfft_radix4_f32.c **** 
 431:../libDaisy/Drivers/CMSIS/DSP/Source/TransformFunctions/arm_cfft_radix4_f32.c ****       /* xa + xc */
 432:../libDaisy/Drivers/CMSIS/DSP/Source/TransformFunctions/arm_cfft_radix4_f32.c ****       Xaplusc = xaIn + xcIn;
 433:../libDaisy/Drivers/CMSIS/DSP/Source/TransformFunctions/arm_cfft_radix4_f32.c **** 
 434:../libDaisy/Drivers/CMSIS/DSP/Source/TransformFunctions/arm_cfft_radix4_f32.c ****       /* xa - xc */
 435:../libDaisy/Drivers/CMSIS/DSP/Source/TransformFunctions/arm_cfft_radix4_f32.c ****       Xaminusc = xaIn - xcIn;
 436:../libDaisy/Drivers/CMSIS/DSP/Source/TransformFunctions/arm_cfft_radix4_f32.c **** 
 437:../libDaisy/Drivers/CMSIS/DSP/Source/TransformFunctions/arm_cfft_radix4_f32.c ****       /* ya + yc */
 438:../libDaisy/Drivers/CMSIS/DSP/Source/TransformFunctions/arm_cfft_radix4_f32.c ****       Yaplusc = yaIn + ycIn;
 439:../libDaisy/Drivers/CMSIS/DSP/Source/TransformFunctions/arm_cfft_radix4_f32.c **** 
 440:../libDaisy/Drivers/CMSIS/DSP/Source/TransformFunctions/arm_cfft_radix4_f32.c ****       /* ya - yc */
 441:../libDaisy/Drivers/CMSIS/DSP/Source/TransformFunctions/arm_cfft_radix4_f32.c ****       Yaminusc = yaIn - ycIn;
 442:../libDaisy/Drivers/CMSIS/DSP/Source/TransformFunctions/arm_cfft_radix4_f32.c **** 
 443:../libDaisy/Drivers/CMSIS/DSP/Source/TransformFunctions/arm_cfft_radix4_f32.c ****       /* xb + xd */
 444:../libDaisy/Drivers/CMSIS/DSP/Source/TransformFunctions/arm_cfft_radix4_f32.c ****       Xbplusd = xbIn + xdIn;
 445:../libDaisy/Drivers/CMSIS/DSP/Source/TransformFunctions/arm_cfft_radix4_f32.c **** 
 446:../libDaisy/Drivers/CMSIS/DSP/Source/TransformFunctions/arm_cfft_radix4_f32.c ****       /* yb + yd */
 447:../libDaisy/Drivers/CMSIS/DSP/Source/TransformFunctions/arm_cfft_radix4_f32.c ****       Ybplusd = ybIn + ydIn;
 448:../libDaisy/Drivers/CMSIS/DSP/Source/TransformFunctions/arm_cfft_radix4_f32.c **** 
 449:../libDaisy/Drivers/CMSIS/DSP/Source/TransformFunctions/arm_cfft_radix4_f32.c ****       /* (xb-xd) */
 450:../libDaisy/Drivers/CMSIS/DSP/Source/TransformFunctions/arm_cfft_radix4_f32.c ****       Xbminusd = xbIn - xdIn;
 451:../libDaisy/Drivers/CMSIS/DSP/Source/TransformFunctions/arm_cfft_radix4_f32.c **** 
 452:../libDaisy/Drivers/CMSIS/DSP/Source/TransformFunctions/arm_cfft_radix4_f32.c ****       /* (yb-yd) */
 453:../libDaisy/Drivers/CMSIS/DSP/Source/TransformFunctions/arm_cfft_radix4_f32.c ****       Ybminusd = ybIn - ydIn;
 454:../libDaisy/Drivers/CMSIS/DSP/Source/TransformFunctions/arm_cfft_radix4_f32.c **** 
 455:../libDaisy/Drivers/CMSIS/DSP/Source/TransformFunctions/arm_cfft_radix4_f32.c ****       /* xa' = xa + xb + xc + xd */
 456:../libDaisy/Drivers/CMSIS/DSP/Source/TransformFunctions/arm_cfft_radix4_f32.c ****       a0 = (Xaplusc + Xbplusd);
 457:../libDaisy/Drivers/CMSIS/DSP/Source/TransformFunctions/arm_cfft_radix4_f32.c ****       /* ya' = ya + yb + yc + yd */
 458:../libDaisy/Drivers/CMSIS/DSP/Source/TransformFunctions/arm_cfft_radix4_f32.c ****       a1 = (Yaplusc + Ybplusd);
 459:../libDaisy/Drivers/CMSIS/DSP/Source/TransformFunctions/arm_cfft_radix4_f32.c ****       /* xc' = (xa-xb+xc-xd) */
 460:../libDaisy/Drivers/CMSIS/DSP/Source/TransformFunctions/arm_cfft_radix4_f32.c ****       a2 = (Xaplusc - Xbplusd);
 461:../libDaisy/Drivers/CMSIS/DSP/Source/TransformFunctions/arm_cfft_radix4_f32.c ****       /* yc' = (ya-yb+yc-yd) */
 462:../libDaisy/Drivers/CMSIS/DSP/Source/TransformFunctions/arm_cfft_radix4_f32.c ****       a3 = (Yaplusc - Ybplusd);
 463:../libDaisy/Drivers/CMSIS/DSP/Source/TransformFunctions/arm_cfft_radix4_f32.c ****       /* xb' = (xa+yb-xc-yd) */
 464:../libDaisy/Drivers/CMSIS/DSP/Source/TransformFunctions/arm_cfft_radix4_f32.c ****       a4 = (Xaminusc + Ybminusd);
 465:../libDaisy/Drivers/CMSIS/DSP/Source/TransformFunctions/arm_cfft_radix4_f32.c ****       /* yb' = (ya-xb-yc+xd) */
 466:../libDaisy/Drivers/CMSIS/DSP/Source/TransformFunctions/arm_cfft_radix4_f32.c ****       a5 = (Yaminusc - Xbminusd);
 467:../libDaisy/Drivers/CMSIS/DSP/Source/TransformFunctions/arm_cfft_radix4_f32.c ****       /* xd' = (xa-yb-xc+yd)) */
 468:../libDaisy/Drivers/CMSIS/DSP/Source/TransformFunctions/arm_cfft_radix4_f32.c ****       a6 = (Xaminusc - Ybminusd);
 469:../libDaisy/Drivers/CMSIS/DSP/Source/TransformFunctions/arm_cfft_radix4_f32.c ****       /* yd' = (ya+xb-yc-xd) */
 470:../libDaisy/Drivers/CMSIS/DSP/Source/TransformFunctions/arm_cfft_radix4_f32.c ****       a7 = (Xbminusd + Yaminusc);
 471:../libDaisy/Drivers/CMSIS/DSP/Source/TransformFunctions/arm_cfft_radix4_f32.c **** 
 472:../libDaisy/Drivers/CMSIS/DSP/Source/TransformFunctions/arm_cfft_radix4_f32.c ****       ptr1[0] = a0;
 473:../libDaisy/Drivers/CMSIS/DSP/Source/TransformFunctions/arm_cfft_radix4_f32.c ****       ptr1[1] = a1;
 474:../libDaisy/Drivers/CMSIS/DSP/Source/TransformFunctions/arm_cfft_radix4_f32.c ****       ptr1[2] = a2;
 475:../libDaisy/Drivers/CMSIS/DSP/Source/TransformFunctions/arm_cfft_radix4_f32.c ****       ptr1[3] = a3;
 476:../libDaisy/Drivers/CMSIS/DSP/Source/TransformFunctions/arm_cfft_radix4_f32.c ****       ptr1[4] = a4;
 477:../libDaisy/Drivers/CMSIS/DSP/Source/TransformFunctions/arm_cfft_radix4_f32.c ****       ptr1[5] = a5;
 478:../libDaisy/Drivers/CMSIS/DSP/Source/TransformFunctions/arm_cfft_radix4_f32.c ****       ptr1[6] = a6;
 479:../libDaisy/Drivers/CMSIS/DSP/Source/TransformFunctions/arm_cfft_radix4_f32.c ****       ptr1[7] = a7;
 480:../libDaisy/Drivers/CMSIS/DSP/Source/TransformFunctions/arm_cfft_radix4_f32.c **** 
ARM GAS  /var/folders/6_/psd2b8g56p7696hhrr4ztjs00000gn/T//ccmmdqDi.s 			page 25


 481:../libDaisy/Drivers/CMSIS/DSP/Source/TransformFunctions/arm_cfft_radix4_f32.c ****       /* increment pointer by 8 */
 482:../libDaisy/Drivers/CMSIS/DSP/Source/TransformFunctions/arm_cfft_radix4_f32.c ****       ptr1 += 8u;
 483:../libDaisy/Drivers/CMSIS/DSP/Source/TransformFunctions/arm_cfft_radix4_f32.c ****    } while (--j);
 643              		.loc 1 483 13 discriminator 1 view .LVU311
 644 029c 0138     		subs	r0, r0, #1
 645              	.LVL80:
 427:../libDaisy/Drivers/CMSIS/DSP/Source/TransformFunctions/arm_cfft_radix4_f32.c ****       ycIn = ptr1[5];
 646              		.loc 1 427 12 view .LVU312
 647 029e 53ED034A 		vldr.32	s9, [r3, #-12]
 648              		.loc 1 483 13 discriminator 1 view .LVU313
 649 02a2 03F12003 		add	r3, r3, #32
 650              	.LVL81:
 428:../libDaisy/Drivers/CMSIS/DSP/Source/TransformFunctions/arm_cfft_radix4_f32.c ****       ydIn = ptr1[7];
 651              		.loc 1 428 12 view .LVU314
 652 02a6 13ED0A3A 		vldr.32	s6, [r3, #-40]
 429:../libDaisy/Drivers/CMSIS/DSP/Source/TransformFunctions/arm_cfft_radix4_f32.c **** 
 653              		.loc 1 429 12 view .LVU315
 654 02aa 53ED093A 		vldr.32	s7, [r3, #-36]
 422:../libDaisy/Drivers/CMSIS/DSP/Source/TransformFunctions/arm_cfft_radix4_f32.c ****       yaIn = ptr1[1];
 655              		.loc 1 422 12 view .LVU316
 656 02ae 13ED107A 		vldr.32	s14, [r3, #-64]
 657              	.LVL82:
 423:../libDaisy/Drivers/CMSIS/DSP/Source/TransformFunctions/arm_cfft_radix4_f32.c ****       xbIn = ptr1[2];
 658              		.loc 1 423 7 is_stmt 1 view .LVU317
 423:../libDaisy/Drivers/CMSIS/DSP/Source/TransformFunctions/arm_cfft_radix4_f32.c ****       xbIn = ptr1[2];
 659              		.loc 1 423 12 is_stmt 0 view .LVU318
 660 02b2 53ED0F7A 		vldr.32	s15, [r3, #-60]
 661              	.LVL83:
 424:../libDaisy/Drivers/CMSIS/DSP/Source/TransformFunctions/arm_cfft_radix4_f32.c ****       ybIn = ptr1[3];
 662              		.loc 1 424 7 is_stmt 1 view .LVU319
 424:../libDaisy/Drivers/CMSIS/DSP/Source/TransformFunctions/arm_cfft_radix4_f32.c ****       ybIn = ptr1[3];
 663              		.loc 1 424 12 is_stmt 0 view .LVU320
 664 02b6 53ED0E6A 		vldr.32	s13, [r3, #-56]
 665              	.LVL84:
 425:../libDaisy/Drivers/CMSIS/DSP/Source/TransformFunctions/arm_cfft_radix4_f32.c ****       xcIn = ptr1[4];
 666              		.loc 1 425 7 is_stmt 1 view .LVU321
 432:../libDaisy/Drivers/CMSIS/DSP/Source/TransformFunctions/arm_cfft_radix4_f32.c **** 
 667              		.loc 1 432 15 is_stmt 0 view .LVU322
 668 02ba 37EE255A 		vadd.f32	s10, s14, s11
 425:../libDaisy/Drivers/CMSIS/DSP/Source/TransformFunctions/arm_cfft_radix4_f32.c ****       xcIn = ptr1[4];
 669              		.loc 1 425 12 view .LVU323
 670 02be 13ED0D6A 		vldr.32	s12, [r3, #-52]
 671              	.LVL85:
 426:../libDaisy/Drivers/CMSIS/DSP/Source/TransformFunctions/arm_cfft_radix4_f32.c ****       ycIn = ptr1[5];
 672              		.loc 1 426 7 is_stmt 1 view .LVU324
 427:../libDaisy/Drivers/CMSIS/DSP/Source/TransformFunctions/arm_cfft_radix4_f32.c ****       xdIn = ptr1[6];
 673              		.loc 1 427 7 view .LVU325
 428:../libDaisy/Drivers/CMSIS/DSP/Source/TransformFunctions/arm_cfft_radix4_f32.c ****       ydIn = ptr1[7];
 674              		.loc 1 428 7 view .LVU326
 429:../libDaisy/Drivers/CMSIS/DSP/Source/TransformFunctions/arm_cfft_radix4_f32.c **** 
 675              		.loc 1 429 7 view .LVU327
 432:../libDaisy/Drivers/CMSIS/DSP/Source/TransformFunctions/arm_cfft_radix4_f32.c **** 
 676              		.loc 1 432 7 view .LVU328
 435:../libDaisy/Drivers/CMSIS/DSP/Source/TransformFunctions/arm_cfft_radix4_f32.c **** 
 677              		.loc 1 435 7 view .LVU329
 435:../libDaisy/Drivers/CMSIS/DSP/Source/TransformFunctions/arm_cfft_radix4_f32.c **** 
 678              		.loc 1 435 16 is_stmt 0 view .LVU330
ARM GAS  /var/folders/6_/psd2b8g56p7696hhrr4ztjs00000gn/T//ccmmdqDi.s 			page 26


 679 02c2 37EE657A 		vsub.f32	s14, s14, s11
 680              	.LVL86:
 438:../libDaisy/Drivers/CMSIS/DSP/Source/TransformFunctions/arm_cfft_radix4_f32.c **** 
 681              		.loc 1 438 7 is_stmt 1 view .LVU331
 444:../libDaisy/Drivers/CMSIS/DSP/Source/TransformFunctions/arm_cfft_radix4_f32.c **** 
 682              		.loc 1 444 15 is_stmt 0 view .LVU332
 683 02c6 36EE834A 		vadd.f32	s8, s13, s6
 438:../libDaisy/Drivers/CMSIS/DSP/Source/TransformFunctions/arm_cfft_radix4_f32.c **** 
 684              		.loc 1 438 15 view .LVU333
 685 02ca 77EEA45A 		vadd.f32	s11, s15, s9
 686              	.LVL87:
 441:../libDaisy/Drivers/CMSIS/DSP/Source/TransformFunctions/arm_cfft_radix4_f32.c **** 
 687              		.loc 1 441 7 is_stmt 1 view .LVU334
 450:../libDaisy/Drivers/CMSIS/DSP/Source/TransformFunctions/arm_cfft_radix4_f32.c **** 
 688              		.loc 1 450 16 is_stmt 0 view .LVU335
 689 02ce 76EEC36A 		vsub.f32	s13, s13, s6
 690              	.LVL88:
 441:../libDaisy/Drivers/CMSIS/DSP/Source/TransformFunctions/arm_cfft_radix4_f32.c **** 
 691              		.loc 1 441 16 view .LVU336
 692 02d2 77EEE47A 		vsub.f32	s15, s15, s9
 693              	.LVL89:
 444:../libDaisy/Drivers/CMSIS/DSP/Source/TransformFunctions/arm_cfft_radix4_f32.c **** 
 694              		.loc 1 444 7 is_stmt 1 view .LVU337
 447:../libDaisy/Drivers/CMSIS/DSP/Source/TransformFunctions/arm_cfft_radix4_f32.c **** 
 695              		.loc 1 447 7 view .LVU338
 447:../libDaisy/Drivers/CMSIS/DSP/Source/TransformFunctions/arm_cfft_radix4_f32.c **** 
 696              		.loc 1 447 15 is_stmt 0 view .LVU339
 697 02d6 76EE234A 		vadd.f32	s9, s12, s7
 698              	.LVL90:
 450:../libDaisy/Drivers/CMSIS/DSP/Source/TransformFunctions/arm_cfft_radix4_f32.c **** 
 699              		.loc 1 450 7 is_stmt 1 view .LVU340
 453:../libDaisy/Drivers/CMSIS/DSP/Source/TransformFunctions/arm_cfft_radix4_f32.c **** 
 700              		.loc 1 453 7 view .LVU341
 453:../libDaisy/Drivers/CMSIS/DSP/Source/TransformFunctions/arm_cfft_radix4_f32.c **** 
 701              		.loc 1 453 16 is_stmt 0 view .LVU342
 702 02da 36EE636A 		vsub.f32	s12, s12, s7
 703              	.LVL91:
 456:../libDaisy/Drivers/CMSIS/DSP/Source/TransformFunctions/arm_cfft_radix4_f32.c ****       /* ya' = ya + yb + yc + yd */
 704              		.loc 1 456 7 is_stmt 1 view .LVU343
 458:../libDaisy/Drivers/CMSIS/DSP/Source/TransformFunctions/arm_cfft_radix4_f32.c ****       /* xc' = (xa-xb+xc-xd) */
 705              		.loc 1 458 7 view .LVU344
 460:../libDaisy/Drivers/CMSIS/DSP/Source/TransformFunctions/arm_cfft_radix4_f32.c ****       /* yc' = (ya-yb+yc-yd) */
 706              		.loc 1 460 7 view .LVU345
 462:../libDaisy/Drivers/CMSIS/DSP/Source/TransformFunctions/arm_cfft_radix4_f32.c ****       /* xb' = (xa+yb-xc-yd) */
 707              		.loc 1 462 7 view .LVU346
 464:../libDaisy/Drivers/CMSIS/DSP/Source/TransformFunctions/arm_cfft_radix4_f32.c ****       /* yb' = (ya-xb-yc+xd) */
 708              		.loc 1 464 7 view .LVU347
 466:../libDaisy/Drivers/CMSIS/DSP/Source/TransformFunctions/arm_cfft_radix4_f32.c ****       /* xd' = (xa-yb-xc+yd)) */
 709              		.loc 1 466 7 view .LVU348
 468:../libDaisy/Drivers/CMSIS/DSP/Source/TransformFunctions/arm_cfft_radix4_f32.c ****       /* yd' = (ya+xb-yc-xd) */
 710              		.loc 1 468 7 view .LVU349
 470:../libDaisy/Drivers/CMSIS/DSP/Source/TransformFunctions/arm_cfft_radix4_f32.c **** 
 711              		.loc 1 470 7 view .LVU350
 472:../libDaisy/Drivers/CMSIS/DSP/Source/TransformFunctions/arm_cfft_radix4_f32.c ****       ptr1[1] = a1;
 712              		.loc 1 472 7 view .LVU351
 456:../libDaisy/Drivers/CMSIS/DSP/Source/TransformFunctions/arm_cfft_radix4_f32.c ****       /* ya' = ya + yb + yc + yd */
 713              		.loc 1 456 10 is_stmt 0 view .LVU352
ARM GAS  /var/folders/6_/psd2b8g56p7696hhrr4ztjs00000gn/T//ccmmdqDi.s 			page 27


 714 02de 35EE043A 		vadd.f32	s6, s10, s8
 715              	.LVL92:
 458:../libDaisy/Drivers/CMSIS/DSP/Source/TransformFunctions/arm_cfft_radix4_f32.c ****       /* xc' = (xa-xb+xc-xd) */
 716              		.loc 1 458 10 view .LVU353
 717 02e2 75EEA43A 		vadd.f32	s7, s11, s9
 718              	.LVL93:
 460:../libDaisy/Drivers/CMSIS/DSP/Source/TransformFunctions/arm_cfft_radix4_f32.c ****       /* yc' = (ya-yb+yc-yd) */
 719              		.loc 1 460 10 view .LVU354
 720 02e6 35EE445A 		vsub.f32	s10, s10, s8
 721              	.LVL94:
 462:../libDaisy/Drivers/CMSIS/DSP/Source/TransformFunctions/arm_cfft_radix4_f32.c ****       /* xb' = (xa+yb-xc-yd) */
 722              		.loc 1 462 10 view .LVU355
 723 02ea 75EEE45A 		vsub.f32	s11, s11, s9
 724              	.LVL95:
 472:../libDaisy/Drivers/CMSIS/DSP/Source/TransformFunctions/arm_cfft_radix4_f32.c ****       ptr1[1] = a1;
 725              		.loc 1 472 15 view .LVU356
 726 02ee 03ED103A 		vstr.32	s6, [r3, #-64]
 727              	.LVL96:
 473:../libDaisy/Drivers/CMSIS/DSP/Source/TransformFunctions/arm_cfft_radix4_f32.c ****       ptr1[2] = a2;
 728              		.loc 1 473 7 is_stmt 1 view .LVU357
 464:../libDaisy/Drivers/CMSIS/DSP/Source/TransformFunctions/arm_cfft_radix4_f32.c ****       /* yb' = (ya-xb-yc+xd) */
 729              		.loc 1 464 10 is_stmt 0 view .LVU358
 730 02f2 37EE064A 		vadd.f32	s8, s14, s12
 731              	.LVL97:
 473:../libDaisy/Drivers/CMSIS/DSP/Source/TransformFunctions/arm_cfft_radix4_f32.c ****       ptr1[2] = a2;
 732              		.loc 1 473 15 view .LVU359
 733 02f6 43ED0F3A 		vstr.32	s7, [r3, #-60]
 734              	.LVL98:
 474:../libDaisy/Drivers/CMSIS/DSP/Source/TransformFunctions/arm_cfft_radix4_f32.c ****       ptr1[3] = a3;
 735              		.loc 1 474 7 is_stmt 1 view .LVU360
 466:../libDaisy/Drivers/CMSIS/DSP/Source/TransformFunctions/arm_cfft_radix4_f32.c ****       /* xd' = (xa-yb-xc+yd)) */
 736              		.loc 1 466 10 is_stmt 0 view .LVU361
 737 02fa 77EEE64A 		vsub.f32	s9, s15, s13
 738              	.LVL99:
 474:../libDaisy/Drivers/CMSIS/DSP/Source/TransformFunctions/arm_cfft_radix4_f32.c ****       ptr1[3] = a3;
 739              		.loc 1 474 15 view .LVU362
 740 02fe 03ED0E5A 		vstr.32	s10, [r3, #-56]
 741              	.LVL100:
 475:../libDaisy/Drivers/CMSIS/DSP/Source/TransformFunctions/arm_cfft_radix4_f32.c ****       ptr1[4] = a4;
 742              		.loc 1 475 7 is_stmt 1 view .LVU363
 468:../libDaisy/Drivers/CMSIS/DSP/Source/TransformFunctions/arm_cfft_radix4_f32.c ****       /* yd' = (ya+xb-yc-xd) */
 743              		.loc 1 468 10 is_stmt 0 view .LVU364
 744 0302 37EE467A 		vsub.f32	s14, s14, s12
 745              	.LVL101:
 475:../libDaisy/Drivers/CMSIS/DSP/Source/TransformFunctions/arm_cfft_radix4_f32.c ****       ptr1[4] = a4;
 746              		.loc 1 475 15 view .LVU365
 747 0306 43ED0D5A 		vstr.32	s11, [r3, #-52]
 748              	.LVL102:
 476:../libDaisy/Drivers/CMSIS/DSP/Source/TransformFunctions/arm_cfft_radix4_f32.c ****       ptr1[5] = a5;
 749              		.loc 1 476 7 is_stmt 1 view .LVU366
 470:../libDaisy/Drivers/CMSIS/DSP/Source/TransformFunctions/arm_cfft_radix4_f32.c **** 
 750              		.loc 1 470 10 is_stmt 0 view .LVU367
 751 030a 77EEA67A 		vadd.f32	s15, s15, s13
 752              	.LVL103:
 476:../libDaisy/Drivers/CMSIS/DSP/Source/TransformFunctions/arm_cfft_radix4_f32.c ****       ptr1[5] = a5;
 753              		.loc 1 476 15 view .LVU368
 754 030e 03ED0C4A 		vstr.32	s8, [r3, #-48]
ARM GAS  /var/folders/6_/psd2b8g56p7696hhrr4ztjs00000gn/T//ccmmdqDi.s 			page 28


 755              	.LVL104:
 477:../libDaisy/Drivers/CMSIS/DSP/Source/TransformFunctions/arm_cfft_radix4_f32.c ****       ptr1[6] = a6;
 756              		.loc 1 477 7 is_stmt 1 view .LVU369
 477:../libDaisy/Drivers/CMSIS/DSP/Source/TransformFunctions/arm_cfft_radix4_f32.c ****       ptr1[6] = a6;
 757              		.loc 1 477 15 is_stmt 0 view .LVU370
 758 0312 43ED0B4A 		vstr.32	s9, [r3, #-44]
 759              	.LVL105:
 478:../libDaisy/Drivers/CMSIS/DSP/Source/TransformFunctions/arm_cfft_radix4_f32.c ****       ptr1[7] = a7;
 760              		.loc 1 478 7 is_stmt 1 view .LVU371
 478:../libDaisy/Drivers/CMSIS/DSP/Source/TransformFunctions/arm_cfft_radix4_f32.c ****       ptr1[7] = a7;
 761              		.loc 1 478 15 is_stmt 0 view .LVU372
 762 0316 03ED0A7A 		vstr.32	s14, [r3, #-40]
 763              	.LVL106:
 479:../libDaisy/Drivers/CMSIS/DSP/Source/TransformFunctions/arm_cfft_radix4_f32.c **** 
 764              		.loc 1 479 7 is_stmt 1 view .LVU373
 479:../libDaisy/Drivers/CMSIS/DSP/Source/TransformFunctions/arm_cfft_radix4_f32.c **** 
 765              		.loc 1 479 15 is_stmt 0 view .LVU374
 766 031a 43ED097A 		vstr.32	s15, [r3, #-36]
 767              	.LVL107:
 482:../libDaisy/Drivers/CMSIS/DSP/Source/TransformFunctions/arm_cfft_radix4_f32.c ****    } while (--j);
 768              		.loc 1 482 7 is_stmt 1 view .LVU375
 769              		.loc 1 483 13 discriminator 1 view .LVU376
 770              		.loc 1 483 13 is_stmt 0 discriminator 1 view .LVU377
 771 031e BBD1     		bne	.L4
 484:../libDaisy/Drivers/CMSIS/DSP/Source/TransformFunctions/arm_cfft_radix4_f32.c **** 
 485:../libDaisy/Drivers/CMSIS/DSP/Source/TransformFunctions/arm_cfft_radix4_f32.c **** #else
 486:../libDaisy/Drivers/CMSIS/DSP/Source/TransformFunctions/arm_cfft_radix4_f32.c **** 
 487:../libDaisy/Drivers/CMSIS/DSP/Source/TransformFunctions/arm_cfft_radix4_f32.c ****    float32_t t1, t2, r1, r2, s1, s2;
 488:../libDaisy/Drivers/CMSIS/DSP/Source/TransformFunctions/arm_cfft_radix4_f32.c **** 
 489:../libDaisy/Drivers/CMSIS/DSP/Source/TransformFunctions/arm_cfft_radix4_f32.c ****    /* Run the below code for Cortex-M0 */
 490:../libDaisy/Drivers/CMSIS/DSP/Source/TransformFunctions/arm_cfft_radix4_f32.c **** 
 491:../libDaisy/Drivers/CMSIS/DSP/Source/TransformFunctions/arm_cfft_radix4_f32.c ****    /*  Initializations for the fft calculation */
 492:../libDaisy/Drivers/CMSIS/DSP/Source/TransformFunctions/arm_cfft_radix4_f32.c ****    n2 = fftLen;
 493:../libDaisy/Drivers/CMSIS/DSP/Source/TransformFunctions/arm_cfft_radix4_f32.c ****    n1 = n2;
 494:../libDaisy/Drivers/CMSIS/DSP/Source/TransformFunctions/arm_cfft_radix4_f32.c ****    for (k = fftLen; k > 1u; k >>= 2u)
 495:../libDaisy/Drivers/CMSIS/DSP/Source/TransformFunctions/arm_cfft_radix4_f32.c ****    {
 496:../libDaisy/Drivers/CMSIS/DSP/Source/TransformFunctions/arm_cfft_radix4_f32.c ****       /*  Initializations for the fft calculation */
 497:../libDaisy/Drivers/CMSIS/DSP/Source/TransformFunctions/arm_cfft_radix4_f32.c ****       n1 = n2;
 498:../libDaisy/Drivers/CMSIS/DSP/Source/TransformFunctions/arm_cfft_radix4_f32.c ****       n2 >>= 2u;
 499:../libDaisy/Drivers/CMSIS/DSP/Source/TransformFunctions/arm_cfft_radix4_f32.c ****       ia1 = 0u;
 500:../libDaisy/Drivers/CMSIS/DSP/Source/TransformFunctions/arm_cfft_radix4_f32.c **** 
 501:../libDaisy/Drivers/CMSIS/DSP/Source/TransformFunctions/arm_cfft_radix4_f32.c ****       /*  FFT Calculation */
 502:../libDaisy/Drivers/CMSIS/DSP/Source/TransformFunctions/arm_cfft_radix4_f32.c ****       j = 0;
 503:../libDaisy/Drivers/CMSIS/DSP/Source/TransformFunctions/arm_cfft_radix4_f32.c ****       do
 504:../libDaisy/Drivers/CMSIS/DSP/Source/TransformFunctions/arm_cfft_radix4_f32.c ****       {
 505:../libDaisy/Drivers/CMSIS/DSP/Source/TransformFunctions/arm_cfft_radix4_f32.c ****          /*  index calculation for the coefficients */
 506:../libDaisy/Drivers/CMSIS/DSP/Source/TransformFunctions/arm_cfft_radix4_f32.c ****          ia2 = ia1 + ia1;
 507:../libDaisy/Drivers/CMSIS/DSP/Source/TransformFunctions/arm_cfft_radix4_f32.c ****          ia3 = ia2 + ia1;
 508:../libDaisy/Drivers/CMSIS/DSP/Source/TransformFunctions/arm_cfft_radix4_f32.c ****          co1 = pCoef[ia1 * 2u];
 509:../libDaisy/Drivers/CMSIS/DSP/Source/TransformFunctions/arm_cfft_radix4_f32.c ****          si1 = pCoef[(ia1 * 2u) + 1u];
 510:../libDaisy/Drivers/CMSIS/DSP/Source/TransformFunctions/arm_cfft_radix4_f32.c ****          co2 = pCoef[ia2 * 2u];
 511:../libDaisy/Drivers/CMSIS/DSP/Source/TransformFunctions/arm_cfft_radix4_f32.c ****          si2 = pCoef[(ia2 * 2u) + 1u];
 512:../libDaisy/Drivers/CMSIS/DSP/Source/TransformFunctions/arm_cfft_radix4_f32.c ****          co3 = pCoef[ia3 * 2u];
 513:../libDaisy/Drivers/CMSIS/DSP/Source/TransformFunctions/arm_cfft_radix4_f32.c ****          si3 = pCoef[(ia3 * 2u) + 1u];
 514:../libDaisy/Drivers/CMSIS/DSP/Source/TransformFunctions/arm_cfft_radix4_f32.c **** 
 515:../libDaisy/Drivers/CMSIS/DSP/Source/TransformFunctions/arm_cfft_radix4_f32.c ****          /*  Twiddle coefficients index modifier */
 516:../libDaisy/Drivers/CMSIS/DSP/Source/TransformFunctions/arm_cfft_radix4_f32.c ****          ia1 = ia1 + twidCoefModifier;
ARM GAS  /var/folders/6_/psd2b8g56p7696hhrr4ztjs00000gn/T//ccmmdqDi.s 			page 29


 517:../libDaisy/Drivers/CMSIS/DSP/Source/TransformFunctions/arm_cfft_radix4_f32.c **** 
 518:../libDaisy/Drivers/CMSIS/DSP/Source/TransformFunctions/arm_cfft_radix4_f32.c ****          i0 = j;
 519:../libDaisy/Drivers/CMSIS/DSP/Source/TransformFunctions/arm_cfft_radix4_f32.c ****          do
 520:../libDaisy/Drivers/CMSIS/DSP/Source/TransformFunctions/arm_cfft_radix4_f32.c ****          {
 521:../libDaisy/Drivers/CMSIS/DSP/Source/TransformFunctions/arm_cfft_radix4_f32.c ****             /*  index calculation for the input as, */
 522:../libDaisy/Drivers/CMSIS/DSP/Source/TransformFunctions/arm_cfft_radix4_f32.c ****             /*  pSrc[i0 + 0], pSrc[i0 + fftLen/4], pSrc[i0 + fftLen/2], pSrc[i0 + 3fftLen/4] */
 523:../libDaisy/Drivers/CMSIS/DSP/Source/TransformFunctions/arm_cfft_radix4_f32.c ****             i1 = i0 + n2;
 524:../libDaisy/Drivers/CMSIS/DSP/Source/TransformFunctions/arm_cfft_radix4_f32.c ****             i2 = i1 + n2;
 525:../libDaisy/Drivers/CMSIS/DSP/Source/TransformFunctions/arm_cfft_radix4_f32.c ****             i3 = i2 + n2;
 526:../libDaisy/Drivers/CMSIS/DSP/Source/TransformFunctions/arm_cfft_radix4_f32.c **** 
 527:../libDaisy/Drivers/CMSIS/DSP/Source/TransformFunctions/arm_cfft_radix4_f32.c ****             /* xa + xc */
 528:../libDaisy/Drivers/CMSIS/DSP/Source/TransformFunctions/arm_cfft_radix4_f32.c ****             r1 = pSrc[(2u * i0)] + pSrc[(2u * i2)];
 529:../libDaisy/Drivers/CMSIS/DSP/Source/TransformFunctions/arm_cfft_radix4_f32.c **** 
 530:../libDaisy/Drivers/CMSIS/DSP/Source/TransformFunctions/arm_cfft_radix4_f32.c ****             /* xa - xc */
 531:../libDaisy/Drivers/CMSIS/DSP/Source/TransformFunctions/arm_cfft_radix4_f32.c ****             r2 = pSrc[(2u * i0)] - pSrc[(2u * i2)];
 532:../libDaisy/Drivers/CMSIS/DSP/Source/TransformFunctions/arm_cfft_radix4_f32.c **** 
 533:../libDaisy/Drivers/CMSIS/DSP/Source/TransformFunctions/arm_cfft_radix4_f32.c ****             /* ya + yc */
 534:../libDaisy/Drivers/CMSIS/DSP/Source/TransformFunctions/arm_cfft_radix4_f32.c ****             s1 = pSrc[(2u * i0) + 1u] + pSrc[(2u * i2) + 1u];
 535:../libDaisy/Drivers/CMSIS/DSP/Source/TransformFunctions/arm_cfft_radix4_f32.c **** 
 536:../libDaisy/Drivers/CMSIS/DSP/Source/TransformFunctions/arm_cfft_radix4_f32.c ****             /* ya - yc */
 537:../libDaisy/Drivers/CMSIS/DSP/Source/TransformFunctions/arm_cfft_radix4_f32.c ****             s2 = pSrc[(2u * i0) + 1u] - pSrc[(2u * i2) + 1u];
 538:../libDaisy/Drivers/CMSIS/DSP/Source/TransformFunctions/arm_cfft_radix4_f32.c **** 
 539:../libDaisy/Drivers/CMSIS/DSP/Source/TransformFunctions/arm_cfft_radix4_f32.c ****             /* xb + xd */
 540:../libDaisy/Drivers/CMSIS/DSP/Source/TransformFunctions/arm_cfft_radix4_f32.c ****             t1 = pSrc[2u * i1] + pSrc[2u * i3];
 541:../libDaisy/Drivers/CMSIS/DSP/Source/TransformFunctions/arm_cfft_radix4_f32.c **** 
 542:../libDaisy/Drivers/CMSIS/DSP/Source/TransformFunctions/arm_cfft_radix4_f32.c ****             /* xa' = xa + xb + xc + xd */
 543:../libDaisy/Drivers/CMSIS/DSP/Source/TransformFunctions/arm_cfft_radix4_f32.c ****             pSrc[2u * i0] = r1 + t1;
 544:../libDaisy/Drivers/CMSIS/DSP/Source/TransformFunctions/arm_cfft_radix4_f32.c **** 
 545:../libDaisy/Drivers/CMSIS/DSP/Source/TransformFunctions/arm_cfft_radix4_f32.c ****             /* xa + xc -(xb + xd) */
 546:../libDaisy/Drivers/CMSIS/DSP/Source/TransformFunctions/arm_cfft_radix4_f32.c ****             r1 = r1 - t1;
 547:../libDaisy/Drivers/CMSIS/DSP/Source/TransformFunctions/arm_cfft_radix4_f32.c **** 
 548:../libDaisy/Drivers/CMSIS/DSP/Source/TransformFunctions/arm_cfft_radix4_f32.c ****             /* yb + yd */
 549:../libDaisy/Drivers/CMSIS/DSP/Source/TransformFunctions/arm_cfft_radix4_f32.c ****             t2 = pSrc[(2u * i1) + 1u] + pSrc[(2u * i3) + 1u];
 550:../libDaisy/Drivers/CMSIS/DSP/Source/TransformFunctions/arm_cfft_radix4_f32.c **** 
 551:../libDaisy/Drivers/CMSIS/DSP/Source/TransformFunctions/arm_cfft_radix4_f32.c ****             /* ya' = ya + yb + yc + yd */
 552:../libDaisy/Drivers/CMSIS/DSP/Source/TransformFunctions/arm_cfft_radix4_f32.c ****             pSrc[(2u * i0) + 1u] = s1 + t2;
 553:../libDaisy/Drivers/CMSIS/DSP/Source/TransformFunctions/arm_cfft_radix4_f32.c **** 
 554:../libDaisy/Drivers/CMSIS/DSP/Source/TransformFunctions/arm_cfft_radix4_f32.c ****             /* (ya + yc) - (yb + yd) */
 555:../libDaisy/Drivers/CMSIS/DSP/Source/TransformFunctions/arm_cfft_radix4_f32.c ****             s1 = s1 - t2;
 556:../libDaisy/Drivers/CMSIS/DSP/Source/TransformFunctions/arm_cfft_radix4_f32.c **** 
 557:../libDaisy/Drivers/CMSIS/DSP/Source/TransformFunctions/arm_cfft_radix4_f32.c ****             /* (yb - yd) */
 558:../libDaisy/Drivers/CMSIS/DSP/Source/TransformFunctions/arm_cfft_radix4_f32.c ****             t1 = pSrc[(2u * i1) + 1u] - pSrc[(2u * i3) + 1u];
 559:../libDaisy/Drivers/CMSIS/DSP/Source/TransformFunctions/arm_cfft_radix4_f32.c **** 
 560:../libDaisy/Drivers/CMSIS/DSP/Source/TransformFunctions/arm_cfft_radix4_f32.c ****             /* (xb - xd) */
 561:../libDaisy/Drivers/CMSIS/DSP/Source/TransformFunctions/arm_cfft_radix4_f32.c ****             t2 = pSrc[2u * i1] - pSrc[2u * i3];
 562:../libDaisy/Drivers/CMSIS/DSP/Source/TransformFunctions/arm_cfft_radix4_f32.c **** 
 563:../libDaisy/Drivers/CMSIS/DSP/Source/TransformFunctions/arm_cfft_radix4_f32.c ****             /* xc' = (xa-xb+xc-xd)co2 + (ya-yb+yc-yd)(si2) */
 564:../libDaisy/Drivers/CMSIS/DSP/Source/TransformFunctions/arm_cfft_radix4_f32.c ****             pSrc[2u * i1] = (r1 * co2) + (s1 * si2);
 565:../libDaisy/Drivers/CMSIS/DSP/Source/TransformFunctions/arm_cfft_radix4_f32.c **** 
 566:../libDaisy/Drivers/CMSIS/DSP/Source/TransformFunctions/arm_cfft_radix4_f32.c ****             /* yc' = (ya-yb+yc-yd)co2 - (xa-xb+xc-xd)(si2) */
 567:../libDaisy/Drivers/CMSIS/DSP/Source/TransformFunctions/arm_cfft_radix4_f32.c ****             pSrc[(2u * i1) + 1u] = (s1 * co2) - (r1 * si2);
 568:../libDaisy/Drivers/CMSIS/DSP/Source/TransformFunctions/arm_cfft_radix4_f32.c **** 
 569:../libDaisy/Drivers/CMSIS/DSP/Source/TransformFunctions/arm_cfft_radix4_f32.c ****             /* (xa - xc) + (yb - yd) */
 570:../libDaisy/Drivers/CMSIS/DSP/Source/TransformFunctions/arm_cfft_radix4_f32.c ****             r1 = r2 + t1;
 571:../libDaisy/Drivers/CMSIS/DSP/Source/TransformFunctions/arm_cfft_radix4_f32.c **** 
 572:../libDaisy/Drivers/CMSIS/DSP/Source/TransformFunctions/arm_cfft_radix4_f32.c ****             /* (xa - xc) - (yb - yd) */
 573:../libDaisy/Drivers/CMSIS/DSP/Source/TransformFunctions/arm_cfft_radix4_f32.c ****             r2 = r2 - t1;
ARM GAS  /var/folders/6_/psd2b8g56p7696hhrr4ztjs00000gn/T//ccmmdqDi.s 			page 30


 574:../libDaisy/Drivers/CMSIS/DSP/Source/TransformFunctions/arm_cfft_radix4_f32.c **** 
 575:../libDaisy/Drivers/CMSIS/DSP/Source/TransformFunctions/arm_cfft_radix4_f32.c ****             /* (ya - yc) -  (xb - xd) */
 576:../libDaisy/Drivers/CMSIS/DSP/Source/TransformFunctions/arm_cfft_radix4_f32.c ****             s1 = s2 - t2;
 577:../libDaisy/Drivers/CMSIS/DSP/Source/TransformFunctions/arm_cfft_radix4_f32.c **** 
 578:../libDaisy/Drivers/CMSIS/DSP/Source/TransformFunctions/arm_cfft_radix4_f32.c ****             /* (ya - yc) +  (xb - xd) */
 579:../libDaisy/Drivers/CMSIS/DSP/Source/TransformFunctions/arm_cfft_radix4_f32.c ****             s2 = s2 + t2;
 580:../libDaisy/Drivers/CMSIS/DSP/Source/TransformFunctions/arm_cfft_radix4_f32.c **** 
 581:../libDaisy/Drivers/CMSIS/DSP/Source/TransformFunctions/arm_cfft_radix4_f32.c ****             /* xb' = (xa+yb-xc-yd)co1 + (ya-xb-yc+xd)(si1) */
 582:../libDaisy/Drivers/CMSIS/DSP/Source/TransformFunctions/arm_cfft_radix4_f32.c ****             pSrc[2u * i2] = (r1 * co1) + (s1 * si1);
 583:../libDaisy/Drivers/CMSIS/DSP/Source/TransformFunctions/arm_cfft_radix4_f32.c **** 
 584:../libDaisy/Drivers/CMSIS/DSP/Source/TransformFunctions/arm_cfft_radix4_f32.c ****             /* yb' = (ya-xb-yc+xd)co1 - (xa+yb-xc-yd)(si1) */
 585:../libDaisy/Drivers/CMSIS/DSP/Source/TransformFunctions/arm_cfft_radix4_f32.c ****             pSrc[(2u * i2) + 1u] = (s1 * co1) - (r1 * si1);
 586:../libDaisy/Drivers/CMSIS/DSP/Source/TransformFunctions/arm_cfft_radix4_f32.c **** 
 587:../libDaisy/Drivers/CMSIS/DSP/Source/TransformFunctions/arm_cfft_radix4_f32.c ****             /* xd' = (xa-yb-xc+yd)co3 + (ya+xb-yc-xd)(si3) */
 588:../libDaisy/Drivers/CMSIS/DSP/Source/TransformFunctions/arm_cfft_radix4_f32.c ****             pSrc[2u * i3] = (r2 * co3) + (s2 * si3);
 589:../libDaisy/Drivers/CMSIS/DSP/Source/TransformFunctions/arm_cfft_radix4_f32.c **** 
 590:../libDaisy/Drivers/CMSIS/DSP/Source/TransformFunctions/arm_cfft_radix4_f32.c ****             /* yd' = (ya+xb-yc-xd)co3 - (xa-yb-xc+yd)(si3) */
 591:../libDaisy/Drivers/CMSIS/DSP/Source/TransformFunctions/arm_cfft_radix4_f32.c ****             pSrc[(2u * i3) + 1u] = (s2 * co3) - (r2 * si3);
 592:../libDaisy/Drivers/CMSIS/DSP/Source/TransformFunctions/arm_cfft_radix4_f32.c **** 
 593:../libDaisy/Drivers/CMSIS/DSP/Source/TransformFunctions/arm_cfft_radix4_f32.c ****             i0 += n1;
 594:../libDaisy/Drivers/CMSIS/DSP/Source/TransformFunctions/arm_cfft_radix4_f32.c ****          } while ( i0 < fftLen);
 595:../libDaisy/Drivers/CMSIS/DSP/Source/TransformFunctions/arm_cfft_radix4_f32.c ****          j++;
 596:../libDaisy/Drivers/CMSIS/DSP/Source/TransformFunctions/arm_cfft_radix4_f32.c ****       } while (j <= (n2 - 1u));
 597:../libDaisy/Drivers/CMSIS/DSP/Source/TransformFunctions/arm_cfft_radix4_f32.c ****       twidCoefModifier <<= 2u;
 598:../libDaisy/Drivers/CMSIS/DSP/Source/TransformFunctions/arm_cfft_radix4_f32.c ****    }
 599:../libDaisy/Drivers/CMSIS/DSP/Source/TransformFunctions/arm_cfft_radix4_f32.c **** 
 600:../libDaisy/Drivers/CMSIS/DSP/Source/TransformFunctions/arm_cfft_radix4_f32.c **** #endif /* #if defined (ARM_MATH_DSP) */
 601:../libDaisy/Drivers/CMSIS/DSP/Source/TransformFunctions/arm_cfft_radix4_f32.c **** 
 602:../libDaisy/Drivers/CMSIS/DSP/Source/TransformFunctions/arm_cfft_radix4_f32.c **** }
 772              		.loc 1 602 1 view .LVU378
 773 0320 0BB0     		add	sp, sp, #44
 774              		.cfi_def_cfa_offset 60
 775              		@ sp needed
 776 0322 BDEC068B 		vldm	sp!, {d8-d10}
 777              		.cfi_restore 84
 778              		.cfi_restore 85
 779              		.cfi_restore 82
 780              		.cfi_restore 83
 781              		.cfi_restore 80
 782              		.cfi_restore 81
 783              		.cfi_def_cfa_offset 36
 784 0326 BDE8F08F 		pop	{r4, r5, r6, r7, r8, r9, r10, fp, pc}
 785              		.loc 1 602 1 view .LVU379
 786              		.cfi_endproc
 787              	.LFE354:
 789 032a 00BF     		.section	.text.arm_radix4_butterfly_inverse_f32,"ax",%progbits
 790              		.align	1
 791              		.p2align 2,,3
 792              		.global	arm_radix4_butterfly_inverse_f32
 793              		.syntax unified
 794              		.thumb
 795              		.thumb_func
 797              	arm_radix4_butterfly_inverse_f32:
 798              	.LVL108:
 799              	.LFB355:
 603:../libDaisy/Drivers/CMSIS/DSP/Source/TransformFunctions/arm_cfft_radix4_f32.c **** 
 604:../libDaisy/Drivers/CMSIS/DSP/Source/TransformFunctions/arm_cfft_radix4_f32.c **** /*
ARM GAS  /var/folders/6_/psd2b8g56p7696hhrr4ztjs00000gn/T//ccmmdqDi.s 			page 31


 605:../libDaisy/Drivers/CMSIS/DSP/Source/TransformFunctions/arm_cfft_radix4_f32.c **** * @brief  Core function for the floating-point CIFFT butterfly process.
 606:../libDaisy/Drivers/CMSIS/DSP/Source/TransformFunctions/arm_cfft_radix4_f32.c **** * @param[in, out] *pSrc            points to the in-place buffer of floating-point data type.
 607:../libDaisy/Drivers/CMSIS/DSP/Source/TransformFunctions/arm_cfft_radix4_f32.c **** * @param[in]      fftLen           length of the FFT.
 608:../libDaisy/Drivers/CMSIS/DSP/Source/TransformFunctions/arm_cfft_radix4_f32.c **** * @param[in]      *pCoef           points to twiddle coefficient buffer.
 609:../libDaisy/Drivers/CMSIS/DSP/Source/TransformFunctions/arm_cfft_radix4_f32.c **** * @param[in]      twidCoefModifier twiddle coefficient modifier that supports different size FFTs w
 610:../libDaisy/Drivers/CMSIS/DSP/Source/TransformFunctions/arm_cfft_radix4_f32.c **** * @param[in]      onebyfftLen      value of 1/fftLen.
 611:../libDaisy/Drivers/CMSIS/DSP/Source/TransformFunctions/arm_cfft_radix4_f32.c **** * @return none.
 612:../libDaisy/Drivers/CMSIS/DSP/Source/TransformFunctions/arm_cfft_radix4_f32.c **** */
 613:../libDaisy/Drivers/CMSIS/DSP/Source/TransformFunctions/arm_cfft_radix4_f32.c **** 
 614:../libDaisy/Drivers/CMSIS/DSP/Source/TransformFunctions/arm_cfft_radix4_f32.c **** void arm_radix4_butterfly_inverse_f32(
 615:../libDaisy/Drivers/CMSIS/DSP/Source/TransformFunctions/arm_cfft_radix4_f32.c **** float32_t * pSrc,
 616:../libDaisy/Drivers/CMSIS/DSP/Source/TransformFunctions/arm_cfft_radix4_f32.c **** uint16_t fftLen,
 617:../libDaisy/Drivers/CMSIS/DSP/Source/TransformFunctions/arm_cfft_radix4_f32.c **** float32_t * pCoef,
 618:../libDaisy/Drivers/CMSIS/DSP/Source/TransformFunctions/arm_cfft_radix4_f32.c **** uint16_t twidCoefModifier,
 619:../libDaisy/Drivers/CMSIS/DSP/Source/TransformFunctions/arm_cfft_radix4_f32.c **** float32_t onebyfftLen)
 620:../libDaisy/Drivers/CMSIS/DSP/Source/TransformFunctions/arm_cfft_radix4_f32.c **** {
 800              		.loc 1 620 1 is_stmt 1 view -0
 801              		.cfi_startproc
 802              		@ args = 0, pretend = 0, frame = 40
 803              		@ frame_needed = 0, uses_anonymous_args = 0
 621:../libDaisy/Drivers/CMSIS/DSP/Source/TransformFunctions/arm_cfft_radix4_f32.c ****    float32_t co1, co2, co3, si1, si2, si3;
 804              		.loc 1 621 4 view .LVU381
 622:../libDaisy/Drivers/CMSIS/DSP/Source/TransformFunctions/arm_cfft_radix4_f32.c ****    uint32_t ia1, ia2, ia3;
 805              		.loc 1 622 4 view .LVU382
 623:../libDaisy/Drivers/CMSIS/DSP/Source/TransformFunctions/arm_cfft_radix4_f32.c ****    uint32_t i0, i1, i2, i3;
 806              		.loc 1 623 4 view .LVU383
 624:../libDaisy/Drivers/CMSIS/DSP/Source/TransformFunctions/arm_cfft_radix4_f32.c ****    uint32_t n1, n2, j, k;
 807              		.loc 1 624 4 view .LVU384
 625:../libDaisy/Drivers/CMSIS/DSP/Source/TransformFunctions/arm_cfft_radix4_f32.c **** 
 626:../libDaisy/Drivers/CMSIS/DSP/Source/TransformFunctions/arm_cfft_radix4_f32.c **** #if defined (ARM_MATH_DSP)
 627:../libDaisy/Drivers/CMSIS/DSP/Source/TransformFunctions/arm_cfft_radix4_f32.c **** 
 628:../libDaisy/Drivers/CMSIS/DSP/Source/TransformFunctions/arm_cfft_radix4_f32.c ****    float32_t xaIn, yaIn, xbIn, ybIn, xcIn, ycIn, xdIn, ydIn;
 808              		.loc 1 628 4 view .LVU385
 629:../libDaisy/Drivers/CMSIS/DSP/Source/TransformFunctions/arm_cfft_radix4_f32.c ****    float32_t Xaplusc, Xbplusd, Yaplusc, Ybplusd, Xaminusc, Xbminusd, Yaminusc,
 809              		.loc 1 629 4 view .LVU386
 630:../libDaisy/Drivers/CMSIS/DSP/Source/TransformFunctions/arm_cfft_radix4_f32.c ****    Ybminusd;
 631:../libDaisy/Drivers/CMSIS/DSP/Source/TransformFunctions/arm_cfft_radix4_f32.c ****    float32_t Xb12C_out, Yb12C_out, Xc12C_out, Yc12C_out, Xd12C_out, Yd12C_out;
 810              		.loc 1 631 4 view .LVU387
 632:../libDaisy/Drivers/CMSIS/DSP/Source/TransformFunctions/arm_cfft_radix4_f32.c ****    float32_t Xb12_out, Yb12_out, Xc12_out, Yc12_out, Xd12_out, Yd12_out;
 811              		.loc 1 632 4 view .LVU388
 633:../libDaisy/Drivers/CMSIS/DSP/Source/TransformFunctions/arm_cfft_radix4_f32.c ****    float32_t *ptr1;
 812              		.loc 1 633 4 view .LVU389
 634:../libDaisy/Drivers/CMSIS/DSP/Source/TransformFunctions/arm_cfft_radix4_f32.c ****    float32_t p0,p1,p2,p3,p4,p5,p6,p7;
 813              		.loc 1 634 4 view .LVU390
 635:../libDaisy/Drivers/CMSIS/DSP/Source/TransformFunctions/arm_cfft_radix4_f32.c ****    float32_t a0,a1,a2,a3,a4,a5,a6,a7;
 814              		.loc 1 635 4 view .LVU391
 636:../libDaisy/Drivers/CMSIS/DSP/Source/TransformFunctions/arm_cfft_radix4_f32.c **** 
 637:../libDaisy/Drivers/CMSIS/DSP/Source/TransformFunctions/arm_cfft_radix4_f32.c **** 
 638:../libDaisy/Drivers/CMSIS/DSP/Source/TransformFunctions/arm_cfft_radix4_f32.c ****    /*  Initializations for the first stage */
 639:../libDaisy/Drivers/CMSIS/DSP/Source/TransformFunctions/arm_cfft_radix4_f32.c ****    n2 = fftLen;
 815              		.loc 1 639 4 view .LVU392
 620:../libDaisy/Drivers/CMSIS/DSP/Source/TransformFunctions/arm_cfft_radix4_f32.c ****    float32_t co1, co2, co3, si1, si2, si3;
 816              		.loc 1 620 1 is_stmt 0 view .LVU393
 817 0000 2DE9F04F 		push	{r4, r5, r6, r7, r8, r9, r10, fp, lr}
 818              		.cfi_def_cfa_offset 36
 819              		.cfi_offset 4, -36
 820              		.cfi_offset 5, -32
ARM GAS  /var/folders/6_/psd2b8g56p7696hhrr4ztjs00000gn/T//ccmmdqDi.s 			page 32


 821              		.cfi_offset 6, -28
 822              		.cfi_offset 7, -24
 823              		.cfi_offset 8, -20
 824              		.cfi_offset 9, -16
 825              		.cfi_offset 10, -12
 826              		.cfi_offset 11, -8
 827              		.cfi_offset 14, -4
 640:../libDaisy/Drivers/CMSIS/DSP/Source/TransformFunctions/arm_cfft_radix4_f32.c ****    n1 = n2;
 641:../libDaisy/Drivers/CMSIS/DSP/Source/TransformFunctions/arm_cfft_radix4_f32.c **** 
 642:../libDaisy/Drivers/CMSIS/DSP/Source/TransformFunctions/arm_cfft_radix4_f32.c ****    /* n2 = fftLen/4 */
 643:../libDaisy/Drivers/CMSIS/DSP/Source/TransformFunctions/arm_cfft_radix4_f32.c ****    n2 >>= 2u;
 828              		.loc 1 643 7 view .LVU394
 829 0004 4FEA910A 		lsr	r10, r1, #2
 620:../libDaisy/Drivers/CMSIS/DSP/Source/TransformFunctions/arm_cfft_radix4_f32.c ****    float32_t co1, co2, co3, si1, si2, si3;
 830              		.loc 1 620 1 view .LVU395
 831 0008 8446     		mov	ip, r0
 832 000a 8B46     		mov	fp, r1
 833              	.LVL109:
 640:../libDaisy/Drivers/CMSIS/DSP/Source/TransformFunctions/arm_cfft_radix4_f32.c ****    n1 = n2;
 834              		.loc 1 640 4 is_stmt 1 view .LVU396
 835              		.loc 1 643 4 view .LVU397
 836 000c 111D     		adds	r1, r2, #4
 837              	.LVL110:
 838              		.loc 1 643 4 is_stmt 0 view .LVU398
 839 000e 00EBCA08 		add	r8, r0, r10, lsl #3
 620:../libDaisy/Drivers/CMSIS/DSP/Source/TransformFunctions/arm_cfft_radix4_f32.c ****    float32_t co1, co2, co3, si1, si2, si3;
 840              		.loc 1 620 1 view .LVU399
 841 0012 B0EE406A 		vmov.f32	s12, s0
 842 0016 0AEB4A00 		add	r0, r10, r10, lsl #1
 843              	.LVL111:
 644:../libDaisy/Drivers/CMSIS/DSP/Source/TransformFunctions/arm_cfft_radix4_f32.c ****    i0 = 0u;
 645:../libDaisy/Drivers/CMSIS/DSP/Source/TransformFunctions/arm_cfft_radix4_f32.c ****    ia1 = 0u;
 646:../libDaisy/Drivers/CMSIS/DSP/Source/TransformFunctions/arm_cfft_radix4_f32.c **** 
 647:../libDaisy/Drivers/CMSIS/DSP/Source/TransformFunctions/arm_cfft_radix4_f32.c ****    j = n2;
 648:../libDaisy/Drivers/CMSIS/DSP/Source/TransformFunctions/arm_cfft_radix4_f32.c **** 
 649:../libDaisy/Drivers/CMSIS/DSP/Source/TransformFunctions/arm_cfft_radix4_f32.c ****    /*  Calculation of first stage */
 650:../libDaisy/Drivers/CMSIS/DSP/Source/TransformFunctions/arm_cfft_radix4_f32.c ****    do
 651:../libDaisy/Drivers/CMSIS/DSP/Source/TransformFunctions/arm_cfft_radix4_f32.c ****    {
 652:../libDaisy/Drivers/CMSIS/DSP/Source/TransformFunctions/arm_cfft_radix4_f32.c ****       /*  index calculation for the input as, */
 653:../libDaisy/Drivers/CMSIS/DSP/Source/TransformFunctions/arm_cfft_radix4_f32.c ****       /*  pSrc[i0 + 0], pSrc[i0 + fftLen/4], pSrc[i0 + fftLen/2], pSrc[i0 + 3fftLen/4] */
 654:../libDaisy/Drivers/CMSIS/DSP/Source/TransformFunctions/arm_cfft_radix4_f32.c ****       i1 = i0 + n2;
 655:../libDaisy/Drivers/CMSIS/DSP/Source/TransformFunctions/arm_cfft_radix4_f32.c ****       i2 = i1 + n2;
 656:../libDaisy/Drivers/CMSIS/DSP/Source/TransformFunctions/arm_cfft_radix4_f32.c ****       i3 = i2 + n2;
 657:../libDaisy/Drivers/CMSIS/DSP/Source/TransformFunctions/arm_cfft_radix4_f32.c **** 
 658:../libDaisy/Drivers/CMSIS/DSP/Source/TransformFunctions/arm_cfft_radix4_f32.c ****       /*  Butterfly implementation */
 659:../libDaisy/Drivers/CMSIS/DSP/Source/TransformFunctions/arm_cfft_radix4_f32.c ****       xaIn = pSrc[(2u * i0)];
 660:../libDaisy/Drivers/CMSIS/DSP/Source/TransformFunctions/arm_cfft_radix4_f32.c ****       yaIn = pSrc[(2u * i0) + 1u];
 661:../libDaisy/Drivers/CMSIS/DSP/Source/TransformFunctions/arm_cfft_radix4_f32.c **** 
 662:../libDaisy/Drivers/CMSIS/DSP/Source/TransformFunctions/arm_cfft_radix4_f32.c ****       xcIn = pSrc[(2u * i2)];
 663:../libDaisy/Drivers/CMSIS/DSP/Source/TransformFunctions/arm_cfft_radix4_f32.c ****       ycIn = pSrc[(2u * i2) + 1u];
 664:../libDaisy/Drivers/CMSIS/DSP/Source/TransformFunctions/arm_cfft_radix4_f32.c **** 
 665:../libDaisy/Drivers/CMSIS/DSP/Source/TransformFunctions/arm_cfft_radix4_f32.c ****       xbIn = pSrc[(2u * i1)];
 666:../libDaisy/Drivers/CMSIS/DSP/Source/TransformFunctions/arm_cfft_radix4_f32.c ****       ybIn = pSrc[(2u * i1) + 1u];
 667:../libDaisy/Drivers/CMSIS/DSP/Source/TransformFunctions/arm_cfft_radix4_f32.c **** 
 668:../libDaisy/Drivers/CMSIS/DSP/Source/TransformFunctions/arm_cfft_radix4_f32.c ****       xdIn = pSrc[(2u * i3)];
 669:../libDaisy/Drivers/CMSIS/DSP/Source/TransformFunctions/arm_cfft_radix4_f32.c ****       ydIn = pSrc[(2u * i3) + 1u];
 670:../libDaisy/Drivers/CMSIS/DSP/Source/TransformFunctions/arm_cfft_radix4_f32.c **** 
ARM GAS  /var/folders/6_/psd2b8g56p7696hhrr4ztjs00000gn/T//ccmmdqDi.s 			page 33


 671:../libDaisy/Drivers/CMSIS/DSP/Source/TransformFunctions/arm_cfft_radix4_f32.c ****       /* xa + xc */
 672:../libDaisy/Drivers/CMSIS/DSP/Source/TransformFunctions/arm_cfft_radix4_f32.c ****       Xaplusc = xaIn + xcIn;
 673:../libDaisy/Drivers/CMSIS/DSP/Source/TransformFunctions/arm_cfft_radix4_f32.c ****       /* xb + xd */
 674:../libDaisy/Drivers/CMSIS/DSP/Source/TransformFunctions/arm_cfft_radix4_f32.c ****       Xbplusd = xbIn + xdIn;
 675:../libDaisy/Drivers/CMSIS/DSP/Source/TransformFunctions/arm_cfft_radix4_f32.c ****       /* ya + yc */
 676:../libDaisy/Drivers/CMSIS/DSP/Source/TransformFunctions/arm_cfft_radix4_f32.c ****       Yaplusc = yaIn + ycIn;
 677:../libDaisy/Drivers/CMSIS/DSP/Source/TransformFunctions/arm_cfft_radix4_f32.c ****       /* yb + yd */
 678:../libDaisy/Drivers/CMSIS/DSP/Source/TransformFunctions/arm_cfft_radix4_f32.c ****       Ybplusd = ybIn + ydIn;
 679:../libDaisy/Drivers/CMSIS/DSP/Source/TransformFunctions/arm_cfft_radix4_f32.c **** 
 680:../libDaisy/Drivers/CMSIS/DSP/Source/TransformFunctions/arm_cfft_radix4_f32.c ****       /*  index calculation for the coefficients */
 681:../libDaisy/Drivers/CMSIS/DSP/Source/TransformFunctions/arm_cfft_radix4_f32.c ****       ia2 = ia1 + ia1;
 682:../libDaisy/Drivers/CMSIS/DSP/Source/TransformFunctions/arm_cfft_radix4_f32.c ****       co2 = pCoef[ia2 * 2u];
 683:../libDaisy/Drivers/CMSIS/DSP/Source/TransformFunctions/arm_cfft_radix4_f32.c ****       si2 = pCoef[(ia2 * 2u) + 1u];
 684:../libDaisy/Drivers/CMSIS/DSP/Source/TransformFunctions/arm_cfft_radix4_f32.c **** 
 685:../libDaisy/Drivers/CMSIS/DSP/Source/TransformFunctions/arm_cfft_radix4_f32.c ****       /* xa - xc */
 686:../libDaisy/Drivers/CMSIS/DSP/Source/TransformFunctions/arm_cfft_radix4_f32.c ****       Xaminusc = xaIn - xcIn;
 687:../libDaisy/Drivers/CMSIS/DSP/Source/TransformFunctions/arm_cfft_radix4_f32.c ****       /* xb - xd */
 688:../libDaisy/Drivers/CMSIS/DSP/Source/TransformFunctions/arm_cfft_radix4_f32.c ****       Xbminusd = xbIn - xdIn;
 689:../libDaisy/Drivers/CMSIS/DSP/Source/TransformFunctions/arm_cfft_radix4_f32.c ****       /* ya - yc */
 690:../libDaisy/Drivers/CMSIS/DSP/Source/TransformFunctions/arm_cfft_radix4_f32.c ****       Yaminusc = yaIn - ycIn;
 691:../libDaisy/Drivers/CMSIS/DSP/Source/TransformFunctions/arm_cfft_radix4_f32.c ****       /* yb - yd */
 692:../libDaisy/Drivers/CMSIS/DSP/Source/TransformFunctions/arm_cfft_radix4_f32.c ****       Ybminusd = ybIn - ydIn;
 693:../libDaisy/Drivers/CMSIS/DSP/Source/TransformFunctions/arm_cfft_radix4_f32.c **** 
 694:../libDaisy/Drivers/CMSIS/DSP/Source/TransformFunctions/arm_cfft_radix4_f32.c ****       /* xa' = xa + xb + xc + xd */
 695:../libDaisy/Drivers/CMSIS/DSP/Source/TransformFunctions/arm_cfft_radix4_f32.c ****       pSrc[(2u * i0)] = Xaplusc + Xbplusd;
 696:../libDaisy/Drivers/CMSIS/DSP/Source/TransformFunctions/arm_cfft_radix4_f32.c **** 
 697:../libDaisy/Drivers/CMSIS/DSP/Source/TransformFunctions/arm_cfft_radix4_f32.c ****       /* ya' = ya + yb + yc + yd */
 698:../libDaisy/Drivers/CMSIS/DSP/Source/TransformFunctions/arm_cfft_radix4_f32.c ****       pSrc[(2u * i0) + 1u] = Yaplusc + Ybplusd;
 699:../libDaisy/Drivers/CMSIS/DSP/Source/TransformFunctions/arm_cfft_radix4_f32.c **** 
 700:../libDaisy/Drivers/CMSIS/DSP/Source/TransformFunctions/arm_cfft_radix4_f32.c ****       /* (xa - xc) - (yb - yd) */
 701:../libDaisy/Drivers/CMSIS/DSP/Source/TransformFunctions/arm_cfft_radix4_f32.c ****       Xb12C_out = (Xaminusc - Ybminusd);
 702:../libDaisy/Drivers/CMSIS/DSP/Source/TransformFunctions/arm_cfft_radix4_f32.c ****       /* (ya - yc) + (xb - xd) */
 703:../libDaisy/Drivers/CMSIS/DSP/Source/TransformFunctions/arm_cfft_radix4_f32.c ****       Yb12C_out = (Yaminusc + Xbminusd);
 704:../libDaisy/Drivers/CMSIS/DSP/Source/TransformFunctions/arm_cfft_radix4_f32.c ****       /* (xa + xc) - (xb + xd) */
 705:../libDaisy/Drivers/CMSIS/DSP/Source/TransformFunctions/arm_cfft_radix4_f32.c ****       Xc12C_out = (Xaplusc - Xbplusd);
 706:../libDaisy/Drivers/CMSIS/DSP/Source/TransformFunctions/arm_cfft_radix4_f32.c ****       /* (ya + yc) - (yb + yd) */
 707:../libDaisy/Drivers/CMSIS/DSP/Source/TransformFunctions/arm_cfft_radix4_f32.c ****       Yc12C_out = (Yaplusc - Ybplusd);
 708:../libDaisy/Drivers/CMSIS/DSP/Source/TransformFunctions/arm_cfft_radix4_f32.c ****       /* (xa - xc) + (yb - yd) */
 709:../libDaisy/Drivers/CMSIS/DSP/Source/TransformFunctions/arm_cfft_radix4_f32.c ****       Xd12C_out = (Xaminusc + Ybminusd);
 710:../libDaisy/Drivers/CMSIS/DSP/Source/TransformFunctions/arm_cfft_radix4_f32.c ****       /* (ya - yc) - (xb - xd) */
 711:../libDaisy/Drivers/CMSIS/DSP/Source/TransformFunctions/arm_cfft_radix4_f32.c ****       Yd12C_out = (Yaminusc - Xbminusd);
 712:../libDaisy/Drivers/CMSIS/DSP/Source/TransformFunctions/arm_cfft_radix4_f32.c **** 
 713:../libDaisy/Drivers/CMSIS/DSP/Source/TransformFunctions/arm_cfft_radix4_f32.c ****       co1 = pCoef[ia1 * 2u];
 714:../libDaisy/Drivers/CMSIS/DSP/Source/TransformFunctions/arm_cfft_radix4_f32.c ****       si1 = pCoef[(ia1 * 2u) + 1u];
 715:../libDaisy/Drivers/CMSIS/DSP/Source/TransformFunctions/arm_cfft_radix4_f32.c **** 
 716:../libDaisy/Drivers/CMSIS/DSP/Source/TransformFunctions/arm_cfft_radix4_f32.c ****       /*  index calculation for the coefficients */
 717:../libDaisy/Drivers/CMSIS/DSP/Source/TransformFunctions/arm_cfft_radix4_f32.c ****       ia3 = ia2 + ia1;
 718:../libDaisy/Drivers/CMSIS/DSP/Source/TransformFunctions/arm_cfft_radix4_f32.c ****       co3 = pCoef[ia3 * 2u];
 719:../libDaisy/Drivers/CMSIS/DSP/Source/TransformFunctions/arm_cfft_radix4_f32.c ****       si3 = pCoef[(ia3 * 2u) + 1u];
 720:../libDaisy/Drivers/CMSIS/DSP/Source/TransformFunctions/arm_cfft_radix4_f32.c **** 
 721:../libDaisy/Drivers/CMSIS/DSP/Source/TransformFunctions/arm_cfft_radix4_f32.c ****       Xb12_out = Xb12C_out * co1;
 722:../libDaisy/Drivers/CMSIS/DSP/Source/TransformFunctions/arm_cfft_radix4_f32.c ****       Yb12_out = Yb12C_out * co1;
 723:../libDaisy/Drivers/CMSIS/DSP/Source/TransformFunctions/arm_cfft_radix4_f32.c ****       Xc12_out = Xc12C_out * co2;
 724:../libDaisy/Drivers/CMSIS/DSP/Source/TransformFunctions/arm_cfft_radix4_f32.c ****       Yc12_out = Yc12C_out * co2;
 725:../libDaisy/Drivers/CMSIS/DSP/Source/TransformFunctions/arm_cfft_radix4_f32.c ****       Xd12_out = Xd12C_out * co3;
 726:../libDaisy/Drivers/CMSIS/DSP/Source/TransformFunctions/arm_cfft_radix4_f32.c ****       Yd12_out = Yd12C_out * co3;
 727:../libDaisy/Drivers/CMSIS/DSP/Source/TransformFunctions/arm_cfft_radix4_f32.c **** 
ARM GAS  /var/folders/6_/psd2b8g56p7696hhrr4ztjs00000gn/T//ccmmdqDi.s 			page 34


 728:../libDaisy/Drivers/CMSIS/DSP/Source/TransformFunctions/arm_cfft_radix4_f32.c ****       /* xb' = (xa+yb-xc-yd)co1 - (ya-xb-yc+xd)(si1) */
 729:../libDaisy/Drivers/CMSIS/DSP/Source/TransformFunctions/arm_cfft_radix4_f32.c ****       //Xb12_out -= Yb12C_out * si1;
 730:../libDaisy/Drivers/CMSIS/DSP/Source/TransformFunctions/arm_cfft_radix4_f32.c ****       p0 = Yb12C_out * si1;
 731:../libDaisy/Drivers/CMSIS/DSP/Source/TransformFunctions/arm_cfft_radix4_f32.c ****       /* yb' = (ya-xb-yc+xd)co1 + (xa+yb-xc-yd)(si1) */
 732:../libDaisy/Drivers/CMSIS/DSP/Source/TransformFunctions/arm_cfft_radix4_f32.c ****       //Yb12_out += Xb12C_out * si1;
 733:../libDaisy/Drivers/CMSIS/DSP/Source/TransformFunctions/arm_cfft_radix4_f32.c ****       p1 = Xb12C_out * si1;
 734:../libDaisy/Drivers/CMSIS/DSP/Source/TransformFunctions/arm_cfft_radix4_f32.c ****       /* xc' = (xa-xb+xc-xd)co2 - (ya-yb+yc-yd)(si2) */
 735:../libDaisy/Drivers/CMSIS/DSP/Source/TransformFunctions/arm_cfft_radix4_f32.c ****       //Xc12_out -= Yc12C_out * si2;
 736:../libDaisy/Drivers/CMSIS/DSP/Source/TransformFunctions/arm_cfft_radix4_f32.c ****       p2 = Yc12C_out * si2;
 737:../libDaisy/Drivers/CMSIS/DSP/Source/TransformFunctions/arm_cfft_radix4_f32.c ****       /* yc' = (ya-yb+yc-yd)co2 + (xa-xb+xc-xd)(si2) */
 738:../libDaisy/Drivers/CMSIS/DSP/Source/TransformFunctions/arm_cfft_radix4_f32.c ****       //Yc12_out += Xc12C_out * si2;
 739:../libDaisy/Drivers/CMSIS/DSP/Source/TransformFunctions/arm_cfft_radix4_f32.c ****       p3 = Xc12C_out * si2;
 740:../libDaisy/Drivers/CMSIS/DSP/Source/TransformFunctions/arm_cfft_radix4_f32.c ****       /* xd' = (xa-yb-xc+yd)co3 - (ya+xb-yc-xd)(si3) */
 741:../libDaisy/Drivers/CMSIS/DSP/Source/TransformFunctions/arm_cfft_radix4_f32.c ****       //Xd12_out -= Yd12C_out * si3;
 742:../libDaisy/Drivers/CMSIS/DSP/Source/TransformFunctions/arm_cfft_radix4_f32.c ****       p4 = Yd12C_out * si3;
 743:../libDaisy/Drivers/CMSIS/DSP/Source/TransformFunctions/arm_cfft_radix4_f32.c ****       /* yd' = (ya+xb-yc-xd)co3 + (xa-yb-xc+yd)(si3) */
 744:../libDaisy/Drivers/CMSIS/DSP/Source/TransformFunctions/arm_cfft_radix4_f32.c ****       //Yd12_out += Xd12C_out * si3;
 745:../libDaisy/Drivers/CMSIS/DSP/Source/TransformFunctions/arm_cfft_radix4_f32.c ****       p5 = Xd12C_out * si3;
 746:../libDaisy/Drivers/CMSIS/DSP/Source/TransformFunctions/arm_cfft_radix4_f32.c **** 
 747:../libDaisy/Drivers/CMSIS/DSP/Source/TransformFunctions/arm_cfft_radix4_f32.c ****       Xb12_out -= p0;
 748:../libDaisy/Drivers/CMSIS/DSP/Source/TransformFunctions/arm_cfft_radix4_f32.c ****       Yb12_out += p1;
 749:../libDaisy/Drivers/CMSIS/DSP/Source/TransformFunctions/arm_cfft_radix4_f32.c ****       Xc12_out -= p2;
 750:../libDaisy/Drivers/CMSIS/DSP/Source/TransformFunctions/arm_cfft_radix4_f32.c ****       Yc12_out += p3;
 751:../libDaisy/Drivers/CMSIS/DSP/Source/TransformFunctions/arm_cfft_radix4_f32.c ****       Xd12_out -= p4;
 752:../libDaisy/Drivers/CMSIS/DSP/Source/TransformFunctions/arm_cfft_radix4_f32.c ****       Yd12_out += p5;
 753:../libDaisy/Drivers/CMSIS/DSP/Source/TransformFunctions/arm_cfft_radix4_f32.c **** 
 754:../libDaisy/Drivers/CMSIS/DSP/Source/TransformFunctions/arm_cfft_radix4_f32.c ****       /* xc' = (xa-xb+xc-xd)co2 - (ya-yb+yc-yd)(si2) */
 755:../libDaisy/Drivers/CMSIS/DSP/Source/TransformFunctions/arm_cfft_radix4_f32.c ****       pSrc[2u * i1] = Xc12_out;
 756:../libDaisy/Drivers/CMSIS/DSP/Source/TransformFunctions/arm_cfft_radix4_f32.c **** 
 757:../libDaisy/Drivers/CMSIS/DSP/Source/TransformFunctions/arm_cfft_radix4_f32.c ****       /* yc' = (ya-yb+yc-yd)co2 + (xa-xb+xc-xd)(si2) */
 758:../libDaisy/Drivers/CMSIS/DSP/Source/TransformFunctions/arm_cfft_radix4_f32.c ****       pSrc[(2u * i1) + 1u] = Yc12_out;
 759:../libDaisy/Drivers/CMSIS/DSP/Source/TransformFunctions/arm_cfft_radix4_f32.c **** 
 760:../libDaisy/Drivers/CMSIS/DSP/Source/TransformFunctions/arm_cfft_radix4_f32.c ****       /* xb' = (xa+yb-xc-yd)co1 - (ya-xb-yc+xd)(si1) */
 761:../libDaisy/Drivers/CMSIS/DSP/Source/TransformFunctions/arm_cfft_radix4_f32.c ****       pSrc[2u * i2] = Xb12_out;
 762:../libDaisy/Drivers/CMSIS/DSP/Source/TransformFunctions/arm_cfft_radix4_f32.c **** 
 763:../libDaisy/Drivers/CMSIS/DSP/Source/TransformFunctions/arm_cfft_radix4_f32.c ****       /* yb' = (ya-xb-yc+xd)co1 + (xa+yb-xc-yd)(si1) */
 764:../libDaisy/Drivers/CMSIS/DSP/Source/TransformFunctions/arm_cfft_radix4_f32.c ****       pSrc[(2u * i2) + 1u] = Yb12_out;
 765:../libDaisy/Drivers/CMSIS/DSP/Source/TransformFunctions/arm_cfft_radix4_f32.c **** 
 766:../libDaisy/Drivers/CMSIS/DSP/Source/TransformFunctions/arm_cfft_radix4_f32.c ****       /* xd' = (xa-yb-xc+yd)co3 - (ya+xb-yc-xd)(si3) */
 767:../libDaisy/Drivers/CMSIS/DSP/Source/TransformFunctions/arm_cfft_radix4_f32.c ****       pSrc[2u * i3] = Xd12_out;
 768:../libDaisy/Drivers/CMSIS/DSP/Source/TransformFunctions/arm_cfft_radix4_f32.c **** 
 769:../libDaisy/Drivers/CMSIS/DSP/Source/TransformFunctions/arm_cfft_radix4_f32.c ****       /* yd' = (ya+xb-yc-xd)co3 + (xa-yb-xc+yd)(si3) */
 770:../libDaisy/Drivers/CMSIS/DSP/Source/TransformFunctions/arm_cfft_radix4_f32.c ****       pSrc[(2u * i3) + 1u] = Yd12_out;
 771:../libDaisy/Drivers/CMSIS/DSP/Source/TransformFunctions/arm_cfft_radix4_f32.c **** 
 772:../libDaisy/Drivers/CMSIS/DSP/Source/TransformFunctions/arm_cfft_radix4_f32.c ****       /*  Twiddle coefficients index modifier */
 773:../libDaisy/Drivers/CMSIS/DSP/Source/TransformFunctions/arm_cfft_radix4_f32.c ****       ia1 = ia1 + twidCoefModifier;
 844              		.loc 1 773 17 view .LVU400
 845 001a 8E46     		mov	lr, r1
 846 001c 03EB4309 		add	r9, r3, r3, lsl #1
 847 0020 0F46     		mov	r7, r1
 848 0022 0CEBC000 		add	r0, ip, r0, lsl #3
 849 0026 0E46     		mov	r6, r1
 850 0028 0CEB0A15 		add	r5, ip, r10, lsl #4
 851 002c 4446     		mov	r4, r8
 852 002e 6246     		mov	r2, ip
 853              	.LVL112:
 620:../libDaisy/Drivers/CMSIS/DSP/Source/TransformFunctions/arm_cfft_radix4_f32.c ****    float32_t co1, co2, co3, si1, si2, si3;
ARM GAS  /var/folders/6_/psd2b8g56p7696hhrr4ztjs00000gn/T//ccmmdqDi.s 			page 35


 854              		.loc 1 620 1 view .LVU401
 855 0030 2DED088B 		vpush.64	{d8, d9, d10, d11}
 856              		.cfi_def_cfa_offset 68
 857              		.cfi_offset 80, -68
 858              		.cfi_offset 81, -64
 859              		.cfi_offset 82, -60
 860              		.cfi_offset 83, -56
 861              		.cfi_offset 84, -52
 862              		.cfi_offset 85, -48
 863              		.cfi_offset 86, -44
 864              		.cfi_offset 87, -40
 865 0034 8BB0     		sub	sp, sp, #44
 866              		.cfi_def_cfa_offset 112
 643:../libDaisy/Drivers/CMSIS/DSP/Source/TransformFunctions/arm_cfft_radix4_f32.c ****    i0 = 0u;
 867              		.loc 1 643 7 view .LVU402
 868 0036 CDF800A0 		str	r10, [sp]
 869              	.LVL113:
 644:../libDaisy/Drivers/CMSIS/DSP/Source/TransformFunctions/arm_cfft_radix4_f32.c ****    i0 = 0u;
 870              		.loc 1 644 4 is_stmt 1 view .LVU403
 645:../libDaisy/Drivers/CMSIS/DSP/Source/TransformFunctions/arm_cfft_radix4_f32.c **** 
 871              		.loc 1 645 4 view .LVU404
 647:../libDaisy/Drivers/CMSIS/DSP/Source/TransformFunctions/arm_cfft_radix4_f32.c **** 
 872              		.loc 1 647 4 view .LVU405
 873              	.L17:
 650:../libDaisy/Drivers/CMSIS/DSP/Source/TransformFunctions/arm_cfft_radix4_f32.c ****    {
 874              		.loc 1 650 4 view .LVU406
 654:../libDaisy/Drivers/CMSIS/DSP/Source/TransformFunctions/arm_cfft_radix4_f32.c ****       i2 = i1 + n2;
 875              		.loc 1 654 7 view .LVU407
 655:../libDaisy/Drivers/CMSIS/DSP/Source/TransformFunctions/arm_cfft_radix4_f32.c ****       i3 = i2 + n2;
 876              		.loc 1 655 7 view .LVU408
 656:../libDaisy/Drivers/CMSIS/DSP/Source/TransformFunctions/arm_cfft_radix4_f32.c **** 
 877              		.loc 1 656 7 view .LVU409
 659:../libDaisy/Drivers/CMSIS/DSP/Source/TransformFunctions/arm_cfft_radix4_f32.c ****       yaIn = pSrc[(2u * i0) + 1u];
 878              		.loc 1 659 7 view .LVU410
 659:../libDaisy/Drivers/CMSIS/DSP/Source/TransformFunctions/arm_cfft_radix4_f32.c ****       yaIn = pSrc[(2u * i0) + 1u];
 879              		.loc 1 659 12 is_stmt 0 view .LVU411
 880 003a 92ED007A 		vldr.32	s14, [r2]
 881              	.LVL114:
 660:../libDaisy/Drivers/CMSIS/DSP/Source/TransformFunctions/arm_cfft_radix4_f32.c **** 
 882              		.loc 1 660 7 is_stmt 1 view .LVU412
 774:../libDaisy/Drivers/CMSIS/DSP/Source/TransformFunctions/arm_cfft_radix4_f32.c **** 
 775:../libDaisy/Drivers/CMSIS/DSP/Source/TransformFunctions/arm_cfft_radix4_f32.c ****       /*  Updating input index */
 776:../libDaisy/Drivers/CMSIS/DSP/Source/TransformFunctions/arm_cfft_radix4_f32.c ****       i0 = i0 + 1u;
 777:../libDaisy/Drivers/CMSIS/DSP/Source/TransformFunctions/arm_cfft_radix4_f32.c **** 
 778:../libDaisy/Drivers/CMSIS/DSP/Source/TransformFunctions/arm_cfft_radix4_f32.c ****    } while (--j);
 883              		.loc 1 778 13 is_stmt 0 discriminator 1 view .LVU413
 884 003e 0832     		adds	r2, r2, #8
 662:../libDaisy/Drivers/CMSIS/DSP/Source/TransformFunctions/arm_cfft_radix4_f32.c ****       ycIn = pSrc[(2u * i2) + 1u];
 885              		.loc 1 662 12 view .LVU414
 886 0040 D5ED001A 		vldr.32	s3, [r5]
 887              		.loc 1 778 13 discriminator 1 view .LVU415
 888 0044 0834     		adds	r4, r4, #8
 663:../libDaisy/Drivers/CMSIS/DSP/Source/TransformFunctions/arm_cfft_radix4_f32.c **** 
 889              		.loc 1 663 12 view .LVU416
 890 0046 D5ED012A 		vldr.32	s5, [r5, #4]
 891              		.loc 1 778 13 discriminator 1 view .LVU417
 892 004a 0830     		adds	r0, r0, #8
ARM GAS  /var/folders/6_/psd2b8g56p7696hhrr4ztjs00000gn/T//ccmmdqDi.s 			page 36


 660:../libDaisy/Drivers/CMSIS/DSP/Source/TransformFunctions/arm_cfft_radix4_f32.c **** 
 893              		.loc 1 660 12 view .LVU418
 894 004c 52ED017A 		vldr.32	s15, [r2, #-4]
 895              	.LVL115:
 662:../libDaisy/Drivers/CMSIS/DSP/Source/TransformFunctions/arm_cfft_radix4_f32.c ****       ycIn = pSrc[(2u * i2) + 1u];
 896              		.loc 1 662 7 is_stmt 1 view .LVU419
 663:../libDaisy/Drivers/CMSIS/DSP/Source/TransformFunctions/arm_cfft_radix4_f32.c **** 
 897              		.loc 1 663 7 view .LVU420
 665:../libDaisy/Drivers/CMSIS/DSP/Source/TransformFunctions/arm_cfft_radix4_f32.c ****       ybIn = pSrc[(2u * i1) + 1u];
 898              		.loc 1 665 7 view .LVU421
 672:../libDaisy/Drivers/CMSIS/DSP/Source/TransformFunctions/arm_cfft_radix4_f32.c ****       /* xb + xd */
 899              		.loc 1 672 15 is_stmt 0 view .LVU422
 900 0050 37EE214A 		vadd.f32	s8, s14, s3
 668:../libDaisy/Drivers/CMSIS/DSP/Source/TransformFunctions/arm_cfft_radix4_f32.c ****       ydIn = pSrc[(2u * i3) + 1u];
 901              		.loc 1 668 12 view .LVU423
 902 0054 10ED022A 		vldr.32	s4, [r0, #-8]
 686:../libDaisy/Drivers/CMSIS/DSP/Source/TransformFunctions/arm_cfft_radix4_f32.c ****       /* xb - xd */
 903              		.loc 1 686 16 view .LVU424
 904 0058 37EE617A 		vsub.f32	s14, s14, s3
 905              	.LVL116:
 669:../libDaisy/Drivers/CMSIS/DSP/Source/TransformFunctions/arm_cfft_radix4_f32.c **** 
 906              		.loc 1 669 12 view .LVU425
 907 005c 10ED013A 		vldr.32	s6, [r0, #-4]
 676:../libDaisy/Drivers/CMSIS/DSP/Source/TransformFunctions/arm_cfft_radix4_f32.c ****       /* yb + yd */
 908              		.loc 1 676 15 view .LVU426
 909 0060 77EEA24A 		vadd.f32	s9, s15, s5
 665:../libDaisy/Drivers/CMSIS/DSP/Source/TransformFunctions/arm_cfft_radix4_f32.c ****       ybIn = pSrc[(2u * i1) + 1u];
 910              		.loc 1 665 12 view .LVU427
 911 0064 54ED026A 		vldr.32	s13, [r4, #-8]
 912              	.LVL117:
 666:../libDaisy/Drivers/CMSIS/DSP/Source/TransformFunctions/arm_cfft_radix4_f32.c **** 
 913              		.loc 1 666 7 is_stmt 1 view .LVU428
 690:../libDaisy/Drivers/CMSIS/DSP/Source/TransformFunctions/arm_cfft_radix4_f32.c ****       /* yb - yd */
 914              		.loc 1 690 16 is_stmt 0 view .LVU429
 915 0068 77EEE27A 		vsub.f32	s15, s15, s5
 916              	.LVL118:
 666:../libDaisy/Drivers/CMSIS/DSP/Source/TransformFunctions/arm_cfft_radix4_f32.c **** 
 917              		.loc 1 666 12 view .LVU430
 918 006c 54ED015A 		vldr.32	s11, [r4, #-4]
 919              	.LVL119:
 668:../libDaisy/Drivers/CMSIS/DSP/Source/TransformFunctions/arm_cfft_radix4_f32.c ****       ydIn = pSrc[(2u * i3) + 1u];
 920              		.loc 1 668 7 is_stmt 1 view .LVU431
 669:../libDaisy/Drivers/CMSIS/DSP/Source/TransformFunctions/arm_cfft_radix4_f32.c **** 
 921              		.loc 1 669 7 view .LVU432
 672:../libDaisy/Drivers/CMSIS/DSP/Source/TransformFunctions/arm_cfft_radix4_f32.c ****       /* xb + xd */
 922              		.loc 1 672 7 view .LVU433
 674:../libDaisy/Drivers/CMSIS/DSP/Source/TransformFunctions/arm_cfft_radix4_f32.c ****       /* ya + yc */
 923              		.loc 1 674 7 view .LVU434
 924              		.loc 1 778 13 is_stmt 0 discriminator 1 view .LVU435
 925 0070 0835     		adds	r5, r5, #8
 674:../libDaisy/Drivers/CMSIS/DSP/Source/TransformFunctions/arm_cfft_radix4_f32.c ****       /* ya + yc */
 926              		.loc 1 674 15 view .LVU436
 927 0072 76EE823A 		vadd.f32	s7, s13, s4
 928              	.LVL120:
 676:../libDaisy/Drivers/CMSIS/DSP/Source/TransformFunctions/arm_cfft_radix4_f32.c ****       /* yb + yd */
 929              		.loc 1 676 7 is_stmt 1 view .LVU437
 678:../libDaisy/Drivers/CMSIS/DSP/Source/TransformFunctions/arm_cfft_radix4_f32.c **** 
ARM GAS  /var/folders/6_/psd2b8g56p7696hhrr4ztjs00000gn/T//ccmmdqDi.s 			page 37


 930              		.loc 1 678 7 view .LVU438
 682:../libDaisy/Drivers/CMSIS/DSP/Source/TransformFunctions/arm_cfft_radix4_f32.c ****       si2 = pCoef[(ia2 * 2u) + 1u];
 931              		.loc 1 682 11 is_stmt 0 view .LVU439
 932 0076 16ED010A 		vldr.32	s0, [r6, #-4]
 678:../libDaisy/Drivers/CMSIS/DSP/Source/TransformFunctions/arm_cfft_radix4_f32.c **** 
 933              		.loc 1 678 15 view .LVU440
 934 007a 35EE835A 		vadd.f32	s10, s11, s6
 935              	.LVL121:
 681:../libDaisy/Drivers/CMSIS/DSP/Source/TransformFunctions/arm_cfft_radix4_f32.c ****       co2 = pCoef[ia2 * 2u];
 936              		.loc 1 681 7 is_stmt 1 view .LVU441
 682:../libDaisy/Drivers/CMSIS/DSP/Source/TransformFunctions/arm_cfft_radix4_f32.c ****       si2 = pCoef[(ia2 * 2u) + 1u];
 937              		.loc 1 682 7 view .LVU442
 688:../libDaisy/Drivers/CMSIS/DSP/Source/TransformFunctions/arm_cfft_radix4_f32.c ****       /* ya - yc */
 938              		.loc 1 688 16 is_stmt 0 view .LVU443
 939 007e 76EEC26A 		vsub.f32	s13, s13, s4
 940              	.LVL122:
 692:../libDaisy/Drivers/CMSIS/DSP/Source/TransformFunctions/arm_cfft_radix4_f32.c **** 
 941              		.loc 1 692 16 view .LVU444
 942 0082 75EEC35A 		vsub.f32	s11, s11, s6
 943              	.LVL123:
 695:../libDaisy/Drivers/CMSIS/DSP/Source/TransformFunctions/arm_cfft_radix4_f32.c **** 
 944              		.loc 1 695 33 view .LVU445
 945 0086 74EE232A 		vadd.f32	s5, s8, s7
 946              	.LVL124:
 698:../libDaisy/Drivers/CMSIS/DSP/Source/TransformFunctions/arm_cfft_radix4_f32.c **** 
 947              		.loc 1 698 38 view .LVU446
 948 008a 34EE853A 		vadd.f32	s6, s9, s10
 949              	.LVL125:
 705:../libDaisy/Drivers/CMSIS/DSP/Source/TransformFunctions/arm_cfft_radix4_f32.c ****       /* (ya + yc) - (yb + yd) */
 950              		.loc 1 705 17 view .LVU447
 951 008e 34EE634A 		vsub.f32	s8, s8, s7
 952              	.LVL126:
 707:../libDaisy/Drivers/CMSIS/DSP/Source/TransformFunctions/arm_cfft_radix4_f32.c ****       /* (xa - xc) + (yb - yd) */
 953              		.loc 1 707 17 view .LVU448
 954 0092 74EEC54A 		vsub.f32	s9, s9, s10
 955              	.LVL127:
 683:../libDaisy/Drivers/CMSIS/DSP/Source/TransformFunctions/arm_cfft_radix4_f32.c **** 
 956              		.loc 1 683 11 view .LVU449
 957 0096 96ED005A 		vldr.32	s10, [r6]
 958              	.LVL128:
 701:../libDaisy/Drivers/CMSIS/DSP/Source/TransformFunctions/arm_cfft_radix4_f32.c ****       /* (ya - yc) + (xb - xd) */
 959              		.loc 1 701 17 view .LVU450
 960 009a 77EE650A 		vsub.f32	s1, s14, s11
 695:../libDaisy/Drivers/CMSIS/DSP/Source/TransformFunctions/arm_cfft_radix4_f32.c **** 
 961              		.loc 1 695 23 view .LVU451
 962 009e 42ED022A 		vstr.32	s5, [r2, #-8]
 963              	.LVL129:
 698:../libDaisy/Drivers/CMSIS/DSP/Source/TransformFunctions/arm_cfft_radix4_f32.c **** 
 964              		.loc 1 698 28 view .LVU452
 965 00a2 02ED013A 		vstr.32	s6, [r2, #-4]
 966              	.LVL130:
 703:../libDaisy/Drivers/CMSIS/DSP/Source/TransformFunctions/arm_cfft_radix4_f32.c ****       /* (xa + xc) - (xb + xd) */
 967              		.loc 1 703 17 view .LVU453
 968 00a6 36EEA71A 		vadd.f32	s2, s13, s15
 709:../libDaisy/Drivers/CMSIS/DSP/Source/TransformFunctions/arm_cfft_radix4_f32.c ****       /* (ya - yc) - (xb - xd) */
 969              		.loc 1 709 17 view .LVU454
 970 00aa 37EE257A 		vadd.f32	s14, s14, s11
ARM GAS  /var/folders/6_/psd2b8g56p7696hhrr4ztjs00000gn/T//ccmmdqDi.s 			page 38


 971              	.LVL131:
 683:../libDaisy/Drivers/CMSIS/DSP/Source/TransformFunctions/arm_cfft_radix4_f32.c **** 
 972              		.loc 1 683 7 is_stmt 1 view .LVU455
 686:../libDaisy/Drivers/CMSIS/DSP/Source/TransformFunctions/arm_cfft_radix4_f32.c ****       /* xb - xd */
 973              		.loc 1 686 7 view .LVU456
 688:../libDaisy/Drivers/CMSIS/DSP/Source/TransformFunctions/arm_cfft_radix4_f32.c ****       /* ya - yc */
 974              		.loc 1 688 7 view .LVU457
 690:../libDaisy/Drivers/CMSIS/DSP/Source/TransformFunctions/arm_cfft_radix4_f32.c ****       /* yb - yd */
 975              		.loc 1 690 7 view .LVU458
 692:../libDaisy/Drivers/CMSIS/DSP/Source/TransformFunctions/arm_cfft_radix4_f32.c **** 
 976              		.loc 1 692 7 view .LVU459
 695:../libDaisy/Drivers/CMSIS/DSP/Source/TransformFunctions/arm_cfft_radix4_f32.c **** 
 977              		.loc 1 695 7 view .LVU460
 698:../libDaisy/Drivers/CMSIS/DSP/Source/TransformFunctions/arm_cfft_radix4_f32.c **** 
 978              		.loc 1 698 7 view .LVU461
 701:../libDaisy/Drivers/CMSIS/DSP/Source/TransformFunctions/arm_cfft_radix4_f32.c ****       /* (ya - yc) + (xb - xd) */
 979              		.loc 1 701 7 view .LVU462
 703:../libDaisy/Drivers/CMSIS/DSP/Source/TransformFunctions/arm_cfft_radix4_f32.c ****       /* (xa + xc) - (xb + xd) */
 980              		.loc 1 703 7 view .LVU463
 705:../libDaisy/Drivers/CMSIS/DSP/Source/TransformFunctions/arm_cfft_radix4_f32.c ****       /* (ya + yc) - (yb + yd) */
 981              		.loc 1 705 7 view .LVU464
 707:../libDaisy/Drivers/CMSIS/DSP/Source/TransformFunctions/arm_cfft_radix4_f32.c ****       /* (xa - xc) + (yb - yd) */
 982              		.loc 1 707 7 view .LVU465
 709:../libDaisy/Drivers/CMSIS/DSP/Source/TransformFunctions/arm_cfft_radix4_f32.c ****       /* (ya - yc) - (xb - xd) */
 983              		.loc 1 709 7 view .LVU466
 711:../libDaisy/Drivers/CMSIS/DSP/Source/TransformFunctions/arm_cfft_radix4_f32.c **** 
 984              		.loc 1 711 7 view .LVU467
 714:../libDaisy/Drivers/CMSIS/DSP/Source/TransformFunctions/arm_cfft_radix4_f32.c **** 
 985              		.loc 1 714 11 is_stmt 0 view .LVU468
 986 00ae D7ED005A 		vldr.32	s11, [r7]
 987              	.LVL132:
 711:../libDaisy/Drivers/CMSIS/DSP/Source/TransformFunctions/arm_cfft_radix4_f32.c **** 
 988              		.loc 1 711 17 view .LVU469
 989 00b2 77EEE67A 		vsub.f32	s15, s15, s13
 990              	.LVL133:
 713:../libDaisy/Drivers/CMSIS/DSP/Source/TransformFunctions/arm_cfft_radix4_f32.c ****       si1 = pCoef[(ia1 * 2u) + 1u];
 991              		.loc 1 713 7 is_stmt 1 view .LVU470
 719:../libDaisy/Drivers/CMSIS/DSP/Source/TransformFunctions/arm_cfft_radix4_f32.c **** 
 992              		.loc 1 719 11 is_stmt 0 view .LVU471
 993 00b6 DEED006A 		vldr.32	s13, [lr]
 994              	.LVL134:
 739:../libDaisy/Drivers/CMSIS/DSP/Source/TransformFunctions/arm_cfft_radix4_f32.c ****       /* xd' = (xa-yb-xc+yd)co3 - (ya+xb-yc-xd)(si3) */
 995              		.loc 1 739 10 view .LVU472
 996 00ba 65EE042A 		vmul.f32	s5, s10, s8
 718:../libDaisy/Drivers/CMSIS/DSP/Source/TransformFunctions/arm_cfft_radix4_f32.c ****       si3 = pCoef[(ia3 * 2u) + 1u];
 997              		.loc 1 718 11 view .LVU473
 998 00be 1EED012A 		vldr.32	s4, [lr, #-4]
 999              	.LVL135:
 749:../libDaisy/Drivers/CMSIS/DSP/Source/TransformFunctions/arm_cfft_radix4_f32.c ****       Yc12_out += p3;
 1000              		.loc 1 749 16 view .LVU474
 1001 00c2 24EEC55A 		vnmul.f32	s10, s9, s10
 1002              	.LVL136:
 713:../libDaisy/Drivers/CMSIS/DSP/Source/TransformFunctions/arm_cfft_radix4_f32.c ****       si1 = pCoef[(ia1 * 2u) + 1u];
 1003              		.loc 1 713 11 view .LVU475
 1004 00c6 57ED011A 		vldr.32	s3, [r7, #-4]
 1005              	.LVL137:
 733:../libDaisy/Drivers/CMSIS/DSP/Source/TransformFunctions/arm_cfft_radix4_f32.c ****       /* xc' = (xa-xb+xc-xd)co2 - (ya-yb+yc-yd)(si2) */
ARM GAS  /var/folders/6_/psd2b8g56p7696hhrr4ztjs00000gn/T//ccmmdqDi.s 			page 39


 1006              		.loc 1 733 10 view .LVU476
 1007 00ca 20EEA53A 		vmul.f32	s6, s1, s11
 1008              		.loc 1 778 13 discriminator 1 view .LVU477
 1009 00ce 9045     		cmp	r8, r2
 745:../libDaisy/Drivers/CMSIS/DSP/Source/TransformFunctions/arm_cfft_radix4_f32.c **** 
 1010              		.loc 1 745 10 view .LVU478
 1011 00d0 67EE263A 		vmul.f32	s7, s14, s13
 1012              	.LVL138:
 1013              		.loc 1 778 13 discriminator 1 view .LVU479
 1014 00d4 06EB0316 		add	r6, r6, r3, lsl #4
 749:../libDaisy/Drivers/CMSIS/DSP/Source/TransformFunctions/arm_cfft_radix4_f32.c ****       Yc12_out += p3;
 1015              		.loc 1 749 16 view .LVU480
 1016 00d8 A0EE045A 		vfma.f32	s10, s0, s8
 1017              		.loc 1 778 13 discriminator 1 view .LVU481
 1018 00dc 07EBC307 		add	r7, r7, r3, lsl #3
 751:../libDaisy/Drivers/CMSIS/DSP/Source/TransformFunctions/arm_cfft_radix4_f32.c ****       Yd12_out += p5;
 1019              		.loc 1 751 16 view .LVU482
 1020 00e0 66EEE76A 		vnmul.f32	s13, s13, s15
 1021              		.loc 1 778 13 discriminator 1 view .LVU483
 1022 00e4 0EEBC90E 		add	lr, lr, r9, lsl #3
 750:../libDaisy/Drivers/CMSIS/DSP/Source/TransformFunctions/arm_cfft_radix4_f32.c ****       Xd12_out -= p4;
 1023              		.loc 1 750 16 view .LVU484
 1024 00e8 B0EE624A 		vmov.f32	s8, s5
 1025              	.LVL139:
 747:../libDaisy/Drivers/CMSIS/DSP/Source/TransformFunctions/arm_cfft_radix4_f32.c ****       Yb12_out += p1;
 1026              		.loc 1 747 16 view .LVU485
 1027 00ec 65EEC15A 		vnmul.f32	s11, s11, s2
 1028              	.LVL140:
 714:../libDaisy/Drivers/CMSIS/DSP/Source/TransformFunctions/arm_cfft_radix4_f32.c **** 
 1029              		.loc 1 714 7 is_stmt 1 view .LVU486
 717:../libDaisy/Drivers/CMSIS/DSP/Source/TransformFunctions/arm_cfft_radix4_f32.c ****       co3 = pCoef[ia3 * 2u];
 1030              		.loc 1 717 7 view .LVU487
 718:../libDaisy/Drivers/CMSIS/DSP/Source/TransformFunctions/arm_cfft_radix4_f32.c ****       si3 = pCoef[(ia3 * 2u) + 1u];
 1031              		.loc 1 718 7 view .LVU488
 719:../libDaisy/Drivers/CMSIS/DSP/Source/TransformFunctions/arm_cfft_radix4_f32.c **** 
 1032              		.loc 1 719 7 view .LVU489
 721:../libDaisy/Drivers/CMSIS/DSP/Source/TransformFunctions/arm_cfft_radix4_f32.c ****       Yb12_out = Yb12C_out * co1;
 1033              		.loc 1 721 7 view .LVU490
 722:../libDaisy/Drivers/CMSIS/DSP/Source/TransformFunctions/arm_cfft_radix4_f32.c ****       Xc12_out = Xc12C_out * co2;
 1034              		.loc 1 722 7 view .LVU491
 723:../libDaisy/Drivers/CMSIS/DSP/Source/TransformFunctions/arm_cfft_radix4_f32.c ****       Yc12_out = Yc12C_out * co2;
 1035              		.loc 1 723 7 view .LVU492
 724:../libDaisy/Drivers/CMSIS/DSP/Source/TransformFunctions/arm_cfft_radix4_f32.c ****       Xd12_out = Xd12C_out * co3;
 1036              		.loc 1 724 7 view .LVU493
 725:../libDaisy/Drivers/CMSIS/DSP/Source/TransformFunctions/arm_cfft_radix4_f32.c ****       Yd12_out = Yd12C_out * co3;
 1037              		.loc 1 725 7 view .LVU494
 726:../libDaisy/Drivers/CMSIS/DSP/Source/TransformFunctions/arm_cfft_radix4_f32.c **** 
 1038              		.loc 1 726 7 view .LVU495
 730:../libDaisy/Drivers/CMSIS/DSP/Source/TransformFunctions/arm_cfft_radix4_f32.c ****       /* yb' = (ya-xb-yc+xd)co1 + (xa+yb-xc-yd)(si1) */
 1039              		.loc 1 730 7 view .LVU496
 733:../libDaisy/Drivers/CMSIS/DSP/Source/TransformFunctions/arm_cfft_radix4_f32.c ****       /* xc' = (xa-xb+xc-xd)co2 - (ya-yb+yc-yd)(si2) */
 1040              		.loc 1 733 7 view .LVU497
 736:../libDaisy/Drivers/CMSIS/DSP/Source/TransformFunctions/arm_cfft_radix4_f32.c ****       /* yc' = (ya-yb+yc-yd)co2 + (xa-xb+xc-xd)(si2) */
 1041              		.loc 1 736 7 view .LVU498
 739:../libDaisy/Drivers/CMSIS/DSP/Source/TransformFunctions/arm_cfft_radix4_f32.c ****       /* xd' = (xa-yb-xc+yd)co3 - (ya+xb-yc-xd)(si3) */
 1042              		.loc 1 739 7 view .LVU499
 742:../libDaisy/Drivers/CMSIS/DSP/Source/TransformFunctions/arm_cfft_radix4_f32.c ****       /* yd' = (ya+xb-yc-xd)co3 + (xa-yb-xc+yd)(si3) */
ARM GAS  /var/folders/6_/psd2b8g56p7696hhrr4ztjs00000gn/T//ccmmdqDi.s 			page 40


 1043              		.loc 1 742 7 view .LVU500
 745:../libDaisy/Drivers/CMSIS/DSP/Source/TransformFunctions/arm_cfft_radix4_f32.c **** 
 1044              		.loc 1 745 7 view .LVU501
 747:../libDaisy/Drivers/CMSIS/DSP/Source/TransformFunctions/arm_cfft_radix4_f32.c ****       Yb12_out += p1;
 1045              		.loc 1 747 7 view .LVU502
 751:../libDaisy/Drivers/CMSIS/DSP/Source/TransformFunctions/arm_cfft_radix4_f32.c ****       Yd12_out += p5;
 1046              		.loc 1 751 16 is_stmt 0 view .LVU503
 1047 00f0 E7EE026A 		vfma.f32	s13, s14, s4
 750:../libDaisy/Drivers/CMSIS/DSP/Source/TransformFunctions/arm_cfft_radix4_f32.c ****       Xd12_out -= p4;
 1048              		.loc 1 750 16 view .LVU504
 1049 00f4 A0EE244A 		vfma.f32	s8, s0, s9
 770:../libDaisy/Drivers/CMSIS/DSP/Source/TransformFunctions/arm_cfft_radix4_f32.c **** 
 1050              		.loc 1 770 28 view .LVU505
 1051 00f8 B0EE637A 		vmov.f32	s14, s7
 1052              	.LVL141:
 755:../libDaisy/Drivers/CMSIS/DSP/Source/TransformFunctions/arm_cfft_radix4_f32.c **** 
 1053              		.loc 1 755 21 view .LVU506
 1054 00fc 04ED025A 		vstr.32	s10, [r4, #-8]
 748:../libDaisy/Drivers/CMSIS/DSP/Source/TransformFunctions/arm_cfft_radix4_f32.c ****       Xc12_out -= p2;
 1055              		.loc 1 748 16 view .LVU507
 1056 0100 F0EE434A 		vmov.f32	s9, s6
 1057              	.LVL142:
 747:../libDaisy/Drivers/CMSIS/DSP/Source/TransformFunctions/arm_cfft_radix4_f32.c ****       Yb12_out += p1;
 1058              		.loc 1 747 16 view .LVU508
 1059 0104 E0EEA15A 		vfma.f32	s11, s1, s3
 1060              	.LVL143:
 748:../libDaisy/Drivers/CMSIS/DSP/Source/TransformFunctions/arm_cfft_radix4_f32.c ****       Xc12_out -= p2;
 1061              		.loc 1 748 7 is_stmt 1 view .LVU509
 770:../libDaisy/Drivers/CMSIS/DSP/Source/TransformFunctions/arm_cfft_radix4_f32.c **** 
 1062              		.loc 1 770 28 is_stmt 0 view .LVU510
 1063 0108 A7EE827A 		vfma.f32	s14, s15, s4
 748:../libDaisy/Drivers/CMSIS/DSP/Source/TransformFunctions/arm_cfft_radix4_f32.c ****       Xc12_out -= p2;
 1064              		.loc 1 748 16 view .LVU511
 1065 010c E1EE214A 		vfma.f32	s9, s2, s3
 1066              	.LVL144:
 749:../libDaisy/Drivers/CMSIS/DSP/Source/TransformFunctions/arm_cfft_radix4_f32.c ****       Yc12_out += p3;
 1067              		.loc 1 749 7 is_stmt 1 view .LVU512
 750:../libDaisy/Drivers/CMSIS/DSP/Source/TransformFunctions/arm_cfft_radix4_f32.c ****       Xd12_out -= p4;
 1068              		.loc 1 750 7 view .LVU513
 751:../libDaisy/Drivers/CMSIS/DSP/Source/TransformFunctions/arm_cfft_radix4_f32.c ****       Yd12_out += p5;
 1069              		.loc 1 751 7 view .LVU514
 752:../libDaisy/Drivers/CMSIS/DSP/Source/TransformFunctions/arm_cfft_radix4_f32.c **** 
 1070              		.loc 1 752 7 view .LVU515
 755:../libDaisy/Drivers/CMSIS/DSP/Source/TransformFunctions/arm_cfft_radix4_f32.c **** 
 1071              		.loc 1 755 7 view .LVU516
 758:../libDaisy/Drivers/CMSIS/DSP/Source/TransformFunctions/arm_cfft_radix4_f32.c **** 
 1072              		.loc 1 758 7 view .LVU517
 758:../libDaisy/Drivers/CMSIS/DSP/Source/TransformFunctions/arm_cfft_radix4_f32.c **** 
 1073              		.loc 1 758 28 is_stmt 0 view .LVU518
 1074 0110 04ED014A 		vstr.32	s8, [r4, #-4]
 761:../libDaisy/Drivers/CMSIS/DSP/Source/TransformFunctions/arm_cfft_radix4_f32.c **** 
 1075              		.loc 1 761 7 is_stmt 1 view .LVU519
 761:../libDaisy/Drivers/CMSIS/DSP/Source/TransformFunctions/arm_cfft_radix4_f32.c **** 
 1076              		.loc 1 761 21 is_stmt 0 view .LVU520
 1077 0114 45ED025A 		vstr.32	s11, [r5, #-8]
 764:../libDaisy/Drivers/CMSIS/DSP/Source/TransformFunctions/arm_cfft_radix4_f32.c **** 
 1078              		.loc 1 764 7 is_stmt 1 view .LVU521
ARM GAS  /var/folders/6_/psd2b8g56p7696hhrr4ztjs00000gn/T//ccmmdqDi.s 			page 41


 764:../libDaisy/Drivers/CMSIS/DSP/Source/TransformFunctions/arm_cfft_radix4_f32.c **** 
 1079              		.loc 1 764 28 is_stmt 0 view .LVU522
 1080 0118 45ED014A 		vstr.32	s9, [r5, #-4]
 767:../libDaisy/Drivers/CMSIS/DSP/Source/TransformFunctions/arm_cfft_radix4_f32.c **** 
 1081              		.loc 1 767 7 is_stmt 1 view .LVU523
 767:../libDaisy/Drivers/CMSIS/DSP/Source/TransformFunctions/arm_cfft_radix4_f32.c **** 
 1082              		.loc 1 767 21 is_stmt 0 view .LVU524
 1083 011c 40ED026A 		vstr.32	s13, [r0, #-8]
 770:../libDaisy/Drivers/CMSIS/DSP/Source/TransformFunctions/arm_cfft_radix4_f32.c **** 
 1084              		.loc 1 770 7 is_stmt 1 view .LVU525
 770:../libDaisy/Drivers/CMSIS/DSP/Source/TransformFunctions/arm_cfft_radix4_f32.c **** 
 1085              		.loc 1 770 28 is_stmt 0 view .LVU526
 1086 0120 00ED017A 		vstr.32	s14, [r0, #-4]
 773:../libDaisy/Drivers/CMSIS/DSP/Source/TransformFunctions/arm_cfft_radix4_f32.c **** 
 1087              		.loc 1 773 7 is_stmt 1 view .LVU527
 776:../libDaisy/Drivers/CMSIS/DSP/Source/TransformFunctions/arm_cfft_radix4_f32.c **** 
 1088              		.loc 1 776 7 view .LVU528
 1089              		.loc 1 778 13 discriminator 1 view .LVU529
 1090 0124 89D1     		bne	.L17
 779:../libDaisy/Drivers/CMSIS/DSP/Source/TransformFunctions/arm_cfft_radix4_f32.c **** 
 780:../libDaisy/Drivers/CMSIS/DSP/Source/TransformFunctions/arm_cfft_radix4_f32.c ****    twidCoefModifier <<= 2u;
 1091              		.loc 1 780 4 view .LVU530
 1092              	.LVL145:
 781:../libDaisy/Drivers/CMSIS/DSP/Source/TransformFunctions/arm_cfft_radix4_f32.c **** 
 782:../libDaisy/Drivers/CMSIS/DSP/Source/TransformFunctions/arm_cfft_radix4_f32.c ****    /*  Calculation of second stage to excluding last stage */
 783:../libDaisy/Drivers/CMSIS/DSP/Source/TransformFunctions/arm_cfft_radix4_f32.c ****    for (k = fftLen >> 2u; k > 4u; k >>= 2u)
 1093              		.loc 1 783 4 view .LVU531
 1094              		.loc 1 783 29 is_stmt 0 discriminator 1 view .LVU532
 1095 0126 BAF1040F 		cmp	r10, #4
 1096              		.loc 1 783 20 view .LVU533
 1097 012a 1FFA8AF0 		uxth	r0, r10
 1098              	.LVL146:
 1099              		.loc 1 783 29 is_stmt 1 discriminator 1 view .LVU534
 1100 012e 40F2B580 		bls	.L23
 780:../libDaisy/Drivers/CMSIS/DSP/Source/TransformFunctions/arm_cfft_radix4_f32.c **** 
 1101              		.loc 1 780 21 is_stmt 0 view .LVU535
 1102 0132 9B00     		lsls	r3, r3, #2
 1103              	.LVL147:
 1104              		.loc 1 783 11 view .LVU536
 1105 0134 0246     		mov	r2, r0
 1106 0136 6446     		mov	r4, ip
 1107 0138 0990     		str	r0, [sp, #36]
 780:../libDaisy/Drivers/CMSIS/DSP/Source/TransformFunctions/arm_cfft_radix4_f32.c **** 
 1108              		.loc 1 780 21 view .LVU537
 1109 013a 9BB2     		uxth	r3, r3
 1110              	.LVL148:
 1111              	.L22:
 784:../libDaisy/Drivers/CMSIS/DSP/Source/TransformFunctions/arm_cfft_radix4_f32.c ****    {
 785:../libDaisy/Drivers/CMSIS/DSP/Source/TransformFunctions/arm_cfft_radix4_f32.c ****       /*  Initializations for the first stage */
 786:../libDaisy/Drivers/CMSIS/DSP/Source/TransformFunctions/arm_cfft_radix4_f32.c ****       n1 = n2;
 1112              		.loc 1 786 7 is_stmt 1 view .LVU538
 787:../libDaisy/Drivers/CMSIS/DSP/Source/TransformFunctions/arm_cfft_radix4_f32.c ****       n2 >>= 2u;
 1113              		.loc 1 787 7 view .LVU539
 1114 013c 009D     		ldr	r5, [sp]
 1115 013e DE00     		lsls	r6, r3, #3
 788:../libDaisy/Drivers/CMSIS/DSP/Source/TransformFunctions/arm_cfft_radix4_f32.c ****       ia1 = 0u;
 789:../libDaisy/Drivers/CMSIS/DSP/Source/TransformFunctions/arm_cfft_radix4_f32.c **** 
ARM GAS  /var/folders/6_/psd2b8g56p7696hhrr4ztjs00000gn/T//ccmmdqDi.s 			page 42


 790:../libDaisy/Drivers/CMSIS/DSP/Source/TransformFunctions/arm_cfft_radix4_f32.c ****       /*  Calculation of first stage */
 791:../libDaisy/Drivers/CMSIS/DSP/Source/TransformFunctions/arm_cfft_radix4_f32.c ****       j = 0;
 792:../libDaisy/Drivers/CMSIS/DSP/Source/TransformFunctions/arm_cfft_radix4_f32.c ****       do
 793:../libDaisy/Drivers/CMSIS/DSP/Source/TransformFunctions/arm_cfft_radix4_f32.c ****       {
 794:../libDaisy/Drivers/CMSIS/DSP/Source/TransformFunctions/arm_cfft_radix4_f32.c ****          /*  index calculation for the coefficients */
 795:../libDaisy/Drivers/CMSIS/DSP/Source/TransformFunctions/arm_cfft_radix4_f32.c ****          ia2 = ia1 + ia1;
 796:../libDaisy/Drivers/CMSIS/DSP/Source/TransformFunctions/arm_cfft_radix4_f32.c ****          ia3 = ia2 + ia1;
 797:../libDaisy/Drivers/CMSIS/DSP/Source/TransformFunctions/arm_cfft_radix4_f32.c ****          co1 = pCoef[ia1 * 2u];
 798:../libDaisy/Drivers/CMSIS/DSP/Source/TransformFunctions/arm_cfft_radix4_f32.c ****          si1 = pCoef[(ia1 * 2u) + 1u];
 799:../libDaisy/Drivers/CMSIS/DSP/Source/TransformFunctions/arm_cfft_radix4_f32.c ****          co2 = pCoef[ia2 * 2u];
 800:../libDaisy/Drivers/CMSIS/DSP/Source/TransformFunctions/arm_cfft_radix4_f32.c ****          si2 = pCoef[(ia2 * 2u) + 1u];
 801:../libDaisy/Drivers/CMSIS/DSP/Source/TransformFunctions/arm_cfft_radix4_f32.c ****          co3 = pCoef[ia3 * 2u];
 802:../libDaisy/Drivers/CMSIS/DSP/Source/TransformFunctions/arm_cfft_radix4_f32.c ****          si3 = pCoef[(ia3 * 2u) + 1u];
 803:../libDaisy/Drivers/CMSIS/DSP/Source/TransformFunctions/arm_cfft_radix4_f32.c **** 
 804:../libDaisy/Drivers/CMSIS/DSP/Source/TransformFunctions/arm_cfft_radix4_f32.c ****          /*  Twiddle coefficients index modifier */
 805:../libDaisy/Drivers/CMSIS/DSP/Source/TransformFunctions/arm_cfft_radix4_f32.c ****          ia1 = ia1 + twidCoefModifier;
 1116              		.loc 1 805 20 is_stmt 0 view .LVU540
 1117 0140 8946     		mov	r9, r1
 1118 0142 8846     		mov	r8, r1
 1119 0144 2846     		mov	r0, r5
 1120 0146 0396     		str	r6, [sp, #12]
 787:../libDaisy/Drivers/CMSIS/DSP/Source/TransformFunctions/arm_cfft_radix4_f32.c ****       n2 >>= 2u;
 1121              		.loc 1 787 10 view .LVU541
 1122 0148 AD08     		lsrs	r5, r5, #2
 1123              		.loc 1 805 20 view .LVU542
 1124 014a 8E46     		mov	lr, r1
 1125 014c 1E01     		lsls	r6, r3, #4
 1126 014e 2746     		mov	r7, r4
 1127 0150 04EB051A 		add	r10, r4, r5, lsl #4
 787:../libDaisy/Drivers/CMSIS/DSP/Source/TransformFunctions/arm_cfft_radix4_f32.c ****       n2 >>= 2u;
 1128              		.loc 1 787 10 view .LVU543
 1129 0154 0095     		str	r5, [sp]
 1130              	.LVL149:
 788:../libDaisy/Drivers/CMSIS/DSP/Source/TransformFunctions/arm_cfft_radix4_f32.c ****       ia1 = 0u;
 1131              		.loc 1 788 7 is_stmt 1 view .LVU544
 791:../libDaisy/Drivers/CMSIS/DSP/Source/TransformFunctions/arm_cfft_radix4_f32.c ****       do
 1132              		.loc 1 791 7 view .LVU545
 791:../libDaisy/Drivers/CMSIS/DSP/Source/TransformFunctions/arm_cfft_radix4_f32.c ****       do
 1133              		.loc 1 791 7 is_stmt 0 view .LVU546
 1134 0156 0296     		str	r6, [sp, #8]
 1135 0158 ED00     		lsls	r5, r5, #3
 1136              	.LVL150:
 791:../libDaisy/Drivers/CMSIS/DSP/Source/TransformFunctions/arm_cfft_radix4_f32.c ****       do
 1137              		.loc 1 791 7 view .LVU547
 1138 015a 03EB4306 		add	r6, r3, r3, lsl #1
 791:../libDaisy/Drivers/CMSIS/DSP/Source/TransformFunctions/arm_cfft_radix4_f32.c ****       do
 1139              		.loc 1 791 9 view .LVU548
 1140 015e 4FF0000C 		mov	ip, #0
 1141 0162 0195     		str	r5, [sp, #4]
 1142 0164 0496     		str	r6, [sp, #16]
 1143 0166 CDE90532 		strd	r3, r2, [sp, #20]
 1144 016a CDE90714 		strd	r1, r4, [sp, #28]
 1145              	.LVL151:
 1146              	.L21:
 792:../libDaisy/Drivers/CMSIS/DSP/Source/TransformFunctions/arm_cfft_radix4_f32.c ****       {
 1147              		.loc 1 792 7 is_stmt 1 view .LVU549
 795:../libDaisy/Drivers/CMSIS/DSP/Source/TransformFunctions/arm_cfft_radix4_f32.c ****          ia3 = ia2 + ia1;
ARM GAS  /var/folders/6_/psd2b8g56p7696hhrr4ztjs00000gn/T//ccmmdqDi.s 			page 43


 1148              		.loc 1 795 10 view .LVU550
 796:../libDaisy/Drivers/CMSIS/DSP/Source/TransformFunctions/arm_cfft_radix4_f32.c ****          co1 = pCoef[ia1 * 2u];
 1149              		.loc 1 796 10 view .LVU551
 797:../libDaisy/Drivers/CMSIS/DSP/Source/TransformFunctions/arm_cfft_radix4_f32.c ****          si1 = pCoef[(ia1 * 2u) + 1u];
 1150              		.loc 1 797 10 view .LVU552
 1151 016e 019B     		ldr	r3, [sp, #4]
 1152 0170 3D1D     		adds	r5, r7, #4
 797:../libDaisy/Drivers/CMSIS/DSP/Source/TransformFunctions/arm_cfft_radix4_f32.c ****          si1 = pCoef[(ia1 * 2u) + 1u];
 1153              		.loc 1 797 14 is_stmt 0 view .LVU553
 1154 0172 1EED01AA 		vldr.32	s20, [lr, #-4]
 1155              	.LVL152:
 798:../libDaisy/Drivers/CMSIS/DSP/Source/TransformFunctions/arm_cfft_radix4_f32.c ****          co2 = pCoef[ia2 * 2u];
 1156              		.loc 1 798 10 is_stmt 1 view .LVU554
 802:../libDaisy/Drivers/CMSIS/DSP/Source/TransformFunctions/arm_cfft_radix4_f32.c **** 
 1157              		.loc 1 802 14 is_stmt 0 view .LVU555
 1158 0176 3C46     		mov	r4, r7
 1159 0178 D919     		adds	r1, r3, r7
 1160 017a 03EB0A02 		add	r2, r3, r10
 798:../libDaisy/Drivers/CMSIS/DSP/Source/TransformFunctions/arm_cfft_radix4_f32.c ****          co2 = pCoef[ia2 * 2u];
 1161              		.loc 1 798 14 view .LVU556
 1162 017e DEED009A 		vldr.32	s19, [lr]
 1163              	.LVL153:
 799:../libDaisy/Drivers/CMSIS/DSP/Source/TransformFunctions/arm_cfft_radix4_f32.c ****          si2 = pCoef[(ia2 * 2u) + 1u];
 1164              		.loc 1 799 10 is_stmt 1 view .LVU557
 802:../libDaisy/Drivers/CMSIS/DSP/Source/TransformFunctions/arm_cfft_radix4_f32.c **** 
 1165              		.loc 1 802 14 is_stmt 0 view .LVU558
 1166 0182 5346     		mov	r3, r10
 799:../libDaisy/Drivers/CMSIS/DSP/Source/TransformFunctions/arm_cfft_radix4_f32.c ****          si2 = pCoef[(ia2 * 2u) + 1u];
 1167              		.loc 1 799 14 view .LVU559
 1168 0184 18ED019A 		vldr.32	s18, [r8, #-4]
 1169              	.LVL154:
 800:../libDaisy/Drivers/CMSIS/DSP/Source/TransformFunctions/arm_cfft_radix4_f32.c ****          co3 = pCoef[ia3 * 2u];
 1170              		.loc 1 800 10 is_stmt 1 view .LVU560
 806:../libDaisy/Drivers/CMSIS/DSP/Source/TransformFunctions/arm_cfft_radix4_f32.c **** 
 807:../libDaisy/Drivers/CMSIS/DSP/Source/TransformFunctions/arm_cfft_radix4_f32.c ****          i0 = j;
 1171              		.loc 1 807 13 is_stmt 0 view .LVU561
 1172 0188 6646     		mov	r6, ip
 800:../libDaisy/Drivers/CMSIS/DSP/Source/TransformFunctions/arm_cfft_radix4_f32.c ****          co3 = pCoef[ia3 * 2u];
 1173              		.loc 1 800 14 view .LVU562
 1174 018a D8ED008A 		vldr.32	s17, [r8]
 1175              	.LVL155:
 801:../libDaisy/Drivers/CMSIS/DSP/Source/TransformFunctions/arm_cfft_radix4_f32.c ****          si3 = pCoef[(ia3 * 2u) + 1u];
 1176              		.loc 1 801 10 is_stmt 1 view .LVU563
 801:../libDaisy/Drivers/CMSIS/DSP/Source/TransformFunctions/arm_cfft_radix4_f32.c ****          si3 = pCoef[(ia3 * 2u) + 1u];
 1177              		.loc 1 801 14 is_stmt 0 view .LVU564
 1178 018e 19ED018A 		vldr.32	s16, [r9, #-4]
 1179              	.LVL156:
 802:../libDaisy/Drivers/CMSIS/DSP/Source/TransformFunctions/arm_cfft_radix4_f32.c **** 
 1180              		.loc 1 802 10 is_stmt 1 view .LVU565
 802:../libDaisy/Drivers/CMSIS/DSP/Source/TransformFunctions/arm_cfft_radix4_f32.c **** 
 1181              		.loc 1 802 14 is_stmt 0 view .LVU566
 1182 0192 99ED000A 		vldr.32	s0, [r9]
 1183              	.LVL157:
 805:../libDaisy/Drivers/CMSIS/DSP/Source/TransformFunctions/arm_cfft_radix4_f32.c **** 
 1184              		.loc 1 805 10 is_stmt 1 view .LVU567
 1185              		.loc 1 807 10 view .LVU568
 1186              	.L20:
ARM GAS  /var/folders/6_/psd2b8g56p7696hhrr4ztjs00000gn/T//ccmmdqDi.s 			page 44


 808:../libDaisy/Drivers/CMSIS/DSP/Source/TransformFunctions/arm_cfft_radix4_f32.c ****          do
 1187              		.loc 1 808 10 view .LVU569
 809:../libDaisy/Drivers/CMSIS/DSP/Source/TransformFunctions/arm_cfft_radix4_f32.c ****          {
 810:../libDaisy/Drivers/CMSIS/DSP/Source/TransformFunctions/arm_cfft_radix4_f32.c ****             /*  index calculation for the input as, */
 811:../libDaisy/Drivers/CMSIS/DSP/Source/TransformFunctions/arm_cfft_radix4_f32.c ****             /*  pSrc[i0 + 0], pSrc[i0 + fftLen/4], pSrc[i0 + fftLen/2], pSrc[i0 + 3fftLen/4] */
 812:../libDaisy/Drivers/CMSIS/DSP/Source/TransformFunctions/arm_cfft_radix4_f32.c ****             i1 = i0 + n2;
 1188              		.loc 1 812 13 view .LVU570
 813:../libDaisy/Drivers/CMSIS/DSP/Source/TransformFunctions/arm_cfft_radix4_f32.c ****             i2 = i1 + n2;
 1189              		.loc 1 813 13 view .LVU571
 814:../libDaisy/Drivers/CMSIS/DSP/Source/TransformFunctions/arm_cfft_radix4_f32.c ****             i3 = i2 + n2;
 1190              		.loc 1 814 13 view .LVU572
 815:../libDaisy/Drivers/CMSIS/DSP/Source/TransformFunctions/arm_cfft_radix4_f32.c **** 
 816:../libDaisy/Drivers/CMSIS/DSP/Source/TransformFunctions/arm_cfft_radix4_f32.c ****             xaIn = pSrc[(2u * i0)];
 1191              		.loc 1 816 13 view .LVU573
 1192              		.loc 1 816 18 is_stmt 0 view .LVU574
 1193 0196 15ED017A 		vldr.32	s14, [r5, #-4]
 1194              	.LVL158:
 817:../libDaisy/Drivers/CMSIS/DSP/Source/TransformFunctions/arm_cfft_radix4_f32.c ****             yaIn = pSrc[(2u * i0) + 1u];
 1195              		.loc 1 817 13 is_stmt 1 view .LVU575
 818:../libDaisy/Drivers/CMSIS/DSP/Source/TransformFunctions/arm_cfft_radix4_f32.c **** 
 819:../libDaisy/Drivers/CMSIS/DSP/Source/TransformFunctions/arm_cfft_radix4_f32.c ****             xbIn = pSrc[(2u * i1)];
 820:../libDaisy/Drivers/CMSIS/DSP/Source/TransformFunctions/arm_cfft_radix4_f32.c ****             ybIn = pSrc[(2u * i1) + 1u];
 821:../libDaisy/Drivers/CMSIS/DSP/Source/TransformFunctions/arm_cfft_radix4_f32.c **** 
 822:../libDaisy/Drivers/CMSIS/DSP/Source/TransformFunctions/arm_cfft_radix4_f32.c ****             xcIn = pSrc[(2u * i2)];
 823:../libDaisy/Drivers/CMSIS/DSP/Source/TransformFunctions/arm_cfft_radix4_f32.c ****             ycIn = pSrc[(2u * i2) + 1u];
 824:../libDaisy/Drivers/CMSIS/DSP/Source/TransformFunctions/arm_cfft_radix4_f32.c **** 
 825:../libDaisy/Drivers/CMSIS/DSP/Source/TransformFunctions/arm_cfft_radix4_f32.c ****             xdIn = pSrc[(2u * i3)];
 826:../libDaisy/Drivers/CMSIS/DSP/Source/TransformFunctions/arm_cfft_radix4_f32.c ****             ydIn = pSrc[(2u * i3) + 1u];
 827:../libDaisy/Drivers/CMSIS/DSP/Source/TransformFunctions/arm_cfft_radix4_f32.c **** 
 828:../libDaisy/Drivers/CMSIS/DSP/Source/TransformFunctions/arm_cfft_radix4_f32.c ****             /* xa - xc */
 829:../libDaisy/Drivers/CMSIS/DSP/Source/TransformFunctions/arm_cfft_radix4_f32.c ****             Xaminusc = xaIn - xcIn;
 830:../libDaisy/Drivers/CMSIS/DSP/Source/TransformFunctions/arm_cfft_radix4_f32.c ****             /* (xb - xd) */
 831:../libDaisy/Drivers/CMSIS/DSP/Source/TransformFunctions/arm_cfft_radix4_f32.c ****             Xbminusd = xbIn - xdIn;
 832:../libDaisy/Drivers/CMSIS/DSP/Source/TransformFunctions/arm_cfft_radix4_f32.c ****             /* ya - yc */
 833:../libDaisy/Drivers/CMSIS/DSP/Source/TransformFunctions/arm_cfft_radix4_f32.c ****             Yaminusc = yaIn - ycIn;
 834:../libDaisy/Drivers/CMSIS/DSP/Source/TransformFunctions/arm_cfft_radix4_f32.c ****             /* (yb - yd) */
 835:../libDaisy/Drivers/CMSIS/DSP/Source/TransformFunctions/arm_cfft_radix4_f32.c ****             Ybminusd = ybIn - ydIn;
 836:../libDaisy/Drivers/CMSIS/DSP/Source/TransformFunctions/arm_cfft_radix4_f32.c **** 
 837:../libDaisy/Drivers/CMSIS/DSP/Source/TransformFunctions/arm_cfft_radix4_f32.c ****             /* xa + xc */
 838:../libDaisy/Drivers/CMSIS/DSP/Source/TransformFunctions/arm_cfft_radix4_f32.c ****             Xaplusc = xaIn + xcIn;
 839:../libDaisy/Drivers/CMSIS/DSP/Source/TransformFunctions/arm_cfft_radix4_f32.c ****             /* xb + xd */
 840:../libDaisy/Drivers/CMSIS/DSP/Source/TransformFunctions/arm_cfft_radix4_f32.c ****             Xbplusd = xbIn + xdIn;
 841:../libDaisy/Drivers/CMSIS/DSP/Source/TransformFunctions/arm_cfft_radix4_f32.c ****             /* ya + yc */
 842:../libDaisy/Drivers/CMSIS/DSP/Source/TransformFunctions/arm_cfft_radix4_f32.c ****             Yaplusc = yaIn + ycIn;
 843:../libDaisy/Drivers/CMSIS/DSP/Source/TransformFunctions/arm_cfft_radix4_f32.c ****             /* yb + yd */
 844:../libDaisy/Drivers/CMSIS/DSP/Source/TransformFunctions/arm_cfft_radix4_f32.c ****             Ybplusd = ybIn + ydIn;
 845:../libDaisy/Drivers/CMSIS/DSP/Source/TransformFunctions/arm_cfft_radix4_f32.c **** 
 846:../libDaisy/Drivers/CMSIS/DSP/Source/TransformFunctions/arm_cfft_radix4_f32.c ****             /* (xa - xc) - (yb - yd) */
 847:../libDaisy/Drivers/CMSIS/DSP/Source/TransformFunctions/arm_cfft_radix4_f32.c ****             Xb12C_out = (Xaminusc - Ybminusd);
 848:../libDaisy/Drivers/CMSIS/DSP/Source/TransformFunctions/arm_cfft_radix4_f32.c ****             /* (ya - yc) +  (xb - xd) */
 849:../libDaisy/Drivers/CMSIS/DSP/Source/TransformFunctions/arm_cfft_radix4_f32.c ****             Yb12C_out = (Yaminusc + Xbminusd);
 850:../libDaisy/Drivers/CMSIS/DSP/Source/TransformFunctions/arm_cfft_radix4_f32.c ****             /* xa + xc -(xb + xd) */
 851:../libDaisy/Drivers/CMSIS/DSP/Source/TransformFunctions/arm_cfft_radix4_f32.c ****             Xc12C_out = (Xaplusc - Xbplusd);
 852:../libDaisy/Drivers/CMSIS/DSP/Source/TransformFunctions/arm_cfft_radix4_f32.c ****             /* (ya + yc) - (yb + yd) */
 853:../libDaisy/Drivers/CMSIS/DSP/Source/TransformFunctions/arm_cfft_radix4_f32.c ****             Yc12C_out = (Yaplusc - Ybplusd);
 854:../libDaisy/Drivers/CMSIS/DSP/Source/TransformFunctions/arm_cfft_radix4_f32.c ****             /* (xa - xc) + (yb - yd) */
 855:../libDaisy/Drivers/CMSIS/DSP/Source/TransformFunctions/arm_cfft_radix4_f32.c ****             Xd12C_out = (Xaminusc + Ybminusd);
ARM GAS  /var/folders/6_/psd2b8g56p7696hhrr4ztjs00000gn/T//ccmmdqDi.s 			page 45


 856:../libDaisy/Drivers/CMSIS/DSP/Source/TransformFunctions/arm_cfft_radix4_f32.c ****             /* (ya - yc) -  (xb - xd) */
 857:../libDaisy/Drivers/CMSIS/DSP/Source/TransformFunctions/arm_cfft_radix4_f32.c ****             Yd12C_out = (Yaminusc - Xbminusd);
 858:../libDaisy/Drivers/CMSIS/DSP/Source/TransformFunctions/arm_cfft_radix4_f32.c **** 
 859:../libDaisy/Drivers/CMSIS/DSP/Source/TransformFunctions/arm_cfft_radix4_f32.c ****             pSrc[(2u * i0)] = Xaplusc + Xbplusd;
 860:../libDaisy/Drivers/CMSIS/DSP/Source/TransformFunctions/arm_cfft_radix4_f32.c ****             pSrc[(2u * i0) + 1u] = Yaplusc + Ybplusd;
 861:../libDaisy/Drivers/CMSIS/DSP/Source/TransformFunctions/arm_cfft_radix4_f32.c **** 
 862:../libDaisy/Drivers/CMSIS/DSP/Source/TransformFunctions/arm_cfft_radix4_f32.c ****             Xb12_out = Xb12C_out * co1;
 863:../libDaisy/Drivers/CMSIS/DSP/Source/TransformFunctions/arm_cfft_radix4_f32.c ****             Yb12_out = Yb12C_out * co1;
 864:../libDaisy/Drivers/CMSIS/DSP/Source/TransformFunctions/arm_cfft_radix4_f32.c ****             Xc12_out = Xc12C_out * co2;
 865:../libDaisy/Drivers/CMSIS/DSP/Source/TransformFunctions/arm_cfft_radix4_f32.c ****             Yc12_out = Yc12C_out * co2;
 866:../libDaisy/Drivers/CMSIS/DSP/Source/TransformFunctions/arm_cfft_radix4_f32.c ****             Xd12_out = Xd12C_out * co3;
 867:../libDaisy/Drivers/CMSIS/DSP/Source/TransformFunctions/arm_cfft_radix4_f32.c ****             Yd12_out = Yd12C_out * co3;
 868:../libDaisy/Drivers/CMSIS/DSP/Source/TransformFunctions/arm_cfft_radix4_f32.c **** 
 869:../libDaisy/Drivers/CMSIS/DSP/Source/TransformFunctions/arm_cfft_radix4_f32.c ****             /* xb' = (xa+yb-xc-yd)co1 - (ya-xb-yc+xd)(si1) */
 870:../libDaisy/Drivers/CMSIS/DSP/Source/TransformFunctions/arm_cfft_radix4_f32.c ****             //Xb12_out -= Yb12C_out * si1;
 871:../libDaisy/Drivers/CMSIS/DSP/Source/TransformFunctions/arm_cfft_radix4_f32.c ****             p0 = Yb12C_out * si1;
 872:../libDaisy/Drivers/CMSIS/DSP/Source/TransformFunctions/arm_cfft_radix4_f32.c ****             /* yb' = (ya-xb-yc+xd)co1 + (xa+yb-xc-yd)(si1) */
 873:../libDaisy/Drivers/CMSIS/DSP/Source/TransformFunctions/arm_cfft_radix4_f32.c ****             //Yb12_out += Xb12C_out * si1;
 874:../libDaisy/Drivers/CMSIS/DSP/Source/TransformFunctions/arm_cfft_radix4_f32.c ****             p1 = Xb12C_out * si1;
 875:../libDaisy/Drivers/CMSIS/DSP/Source/TransformFunctions/arm_cfft_radix4_f32.c ****             /* xc' = (xa-xb+xc-xd)co2 - (ya-yb+yc-yd)(si2) */
 876:../libDaisy/Drivers/CMSIS/DSP/Source/TransformFunctions/arm_cfft_radix4_f32.c ****             //Xc12_out -= Yc12C_out * si2;
 877:../libDaisy/Drivers/CMSIS/DSP/Source/TransformFunctions/arm_cfft_radix4_f32.c ****             p2 = Yc12C_out * si2;
 878:../libDaisy/Drivers/CMSIS/DSP/Source/TransformFunctions/arm_cfft_radix4_f32.c ****             /* yc' = (ya-yb+yc-yd)co2 + (xa-xb+xc-xd)(si2) */
 879:../libDaisy/Drivers/CMSIS/DSP/Source/TransformFunctions/arm_cfft_radix4_f32.c ****             //Yc12_out += Xc12C_out * si2;
 880:../libDaisy/Drivers/CMSIS/DSP/Source/TransformFunctions/arm_cfft_radix4_f32.c ****             p3 = Xc12C_out * si2;
 881:../libDaisy/Drivers/CMSIS/DSP/Source/TransformFunctions/arm_cfft_radix4_f32.c ****             /* xd' = (xa-yb-xc+yd)co3 - (ya+xb-yc-xd)(si3) */
 882:../libDaisy/Drivers/CMSIS/DSP/Source/TransformFunctions/arm_cfft_radix4_f32.c ****             //Xd12_out -= Yd12C_out * si3;
 883:../libDaisy/Drivers/CMSIS/DSP/Source/TransformFunctions/arm_cfft_radix4_f32.c ****             p4 = Yd12C_out * si3;
 884:../libDaisy/Drivers/CMSIS/DSP/Source/TransformFunctions/arm_cfft_radix4_f32.c ****             /* yd' = (ya+xb-yc-xd)co3 + (xa-yb-xc+yd)(si3) */
 885:../libDaisy/Drivers/CMSIS/DSP/Source/TransformFunctions/arm_cfft_radix4_f32.c ****             //Yd12_out += Xd12C_out * si3;
 886:../libDaisy/Drivers/CMSIS/DSP/Source/TransformFunctions/arm_cfft_radix4_f32.c ****             p5 = Xd12C_out * si3;
 887:../libDaisy/Drivers/CMSIS/DSP/Source/TransformFunctions/arm_cfft_radix4_f32.c **** 
 888:../libDaisy/Drivers/CMSIS/DSP/Source/TransformFunctions/arm_cfft_radix4_f32.c ****             Xb12_out -= p0;
 889:../libDaisy/Drivers/CMSIS/DSP/Source/TransformFunctions/arm_cfft_radix4_f32.c ****             Yb12_out += p1;
 890:../libDaisy/Drivers/CMSIS/DSP/Source/TransformFunctions/arm_cfft_radix4_f32.c ****             Xc12_out -= p2;
 891:../libDaisy/Drivers/CMSIS/DSP/Source/TransformFunctions/arm_cfft_radix4_f32.c ****             Yc12_out += p3;
 892:../libDaisy/Drivers/CMSIS/DSP/Source/TransformFunctions/arm_cfft_radix4_f32.c ****             Xd12_out -= p4;
 893:../libDaisy/Drivers/CMSIS/DSP/Source/TransformFunctions/arm_cfft_radix4_f32.c ****             Yd12_out += p5;
 894:../libDaisy/Drivers/CMSIS/DSP/Source/TransformFunctions/arm_cfft_radix4_f32.c **** 
 895:../libDaisy/Drivers/CMSIS/DSP/Source/TransformFunctions/arm_cfft_radix4_f32.c ****             /* xc' = (xa-xb+xc-xd)co2 - (ya-yb+yc-yd)(si2) */
 896:../libDaisy/Drivers/CMSIS/DSP/Source/TransformFunctions/arm_cfft_radix4_f32.c ****             pSrc[2u * i1] = Xc12_out;
 897:../libDaisy/Drivers/CMSIS/DSP/Source/TransformFunctions/arm_cfft_radix4_f32.c **** 
 898:../libDaisy/Drivers/CMSIS/DSP/Source/TransformFunctions/arm_cfft_radix4_f32.c ****             /* yc' = (ya-yb+yc-yd)co2 + (xa-xb+xc-xd)(si2) */
 899:../libDaisy/Drivers/CMSIS/DSP/Source/TransformFunctions/arm_cfft_radix4_f32.c ****             pSrc[(2u * i1) + 1u] = Yc12_out;
 900:../libDaisy/Drivers/CMSIS/DSP/Source/TransformFunctions/arm_cfft_radix4_f32.c **** 
 901:../libDaisy/Drivers/CMSIS/DSP/Source/TransformFunctions/arm_cfft_radix4_f32.c ****             /* xb' = (xa+yb-xc-yd)co1 - (ya-xb-yc+xd)(si1) */
 902:../libDaisy/Drivers/CMSIS/DSP/Source/TransformFunctions/arm_cfft_radix4_f32.c ****             pSrc[2u * i2] = Xb12_out;
 903:../libDaisy/Drivers/CMSIS/DSP/Source/TransformFunctions/arm_cfft_radix4_f32.c **** 
 904:../libDaisy/Drivers/CMSIS/DSP/Source/TransformFunctions/arm_cfft_radix4_f32.c ****             /* yb' = (ya-xb-yc+xd)co1 + (xa+yb-xc-yd)(si1) */
 905:../libDaisy/Drivers/CMSIS/DSP/Source/TransformFunctions/arm_cfft_radix4_f32.c ****             pSrc[(2u * i2) + 1u] = Yb12_out;
 906:../libDaisy/Drivers/CMSIS/DSP/Source/TransformFunctions/arm_cfft_radix4_f32.c **** 
 907:../libDaisy/Drivers/CMSIS/DSP/Source/TransformFunctions/arm_cfft_radix4_f32.c ****             /* xd' = (xa-yb-xc+yd)co3 - (ya+xb-yc-xd)(si3) */
 908:../libDaisy/Drivers/CMSIS/DSP/Source/TransformFunctions/arm_cfft_radix4_f32.c ****             pSrc[2u * i3] = Xd12_out;
 909:../libDaisy/Drivers/CMSIS/DSP/Source/TransformFunctions/arm_cfft_radix4_f32.c **** 
 910:../libDaisy/Drivers/CMSIS/DSP/Source/TransformFunctions/arm_cfft_radix4_f32.c ****             /* yd' = (ya+xb-yc-xd)co3 + (xa-yb-xc+yd)(si3) */
 911:../libDaisy/Drivers/CMSIS/DSP/Source/TransformFunctions/arm_cfft_radix4_f32.c ****             pSrc[(2u * i3) + 1u] = Yd12_out;
 912:../libDaisy/Drivers/CMSIS/DSP/Source/TransformFunctions/arm_cfft_radix4_f32.c **** 
ARM GAS  /var/folders/6_/psd2b8g56p7696hhrr4ztjs00000gn/T//ccmmdqDi.s 			page 46


 913:../libDaisy/Drivers/CMSIS/DSP/Source/TransformFunctions/arm_cfft_radix4_f32.c ****             i0 += n1;
 1196              		.loc 1 913 16 is_stmt 0 view .LVU576
 1197 019a 0644     		add	r6, r6, r0
 1198              	.LVL159:
 817:../libDaisy/Drivers/CMSIS/DSP/Source/TransformFunctions/arm_cfft_radix4_f32.c ****             yaIn = pSrc[(2u * i0) + 1u];
 1199              		.loc 1 817 18 view .LVU577
 1200 019c D4ED017A 		vldr.32	s15, [r4, #4]
 1201              	.LVL160:
 819:../libDaisy/Drivers/CMSIS/DSP/Source/TransformFunctions/arm_cfft_radix4_f32.c ****             ybIn = pSrc[(2u * i1) + 1u];
 1202              		.loc 1 819 13 is_stmt 1 view .LVU578
 822:../libDaisy/Drivers/CMSIS/DSP/Source/TransformFunctions/arm_cfft_radix4_f32.c ****             ycIn = pSrc[(2u * i2) + 1u];
 1203              		.loc 1 822 18 is_stmt 0 view .LVU579
 1204 01a0 93ED002A 		vldr.32	s4, [r3]
 914:../libDaisy/Drivers/CMSIS/DSP/Source/TransformFunctions/arm_cfft_radix4_f32.c ****          } while (i0 < fftLen);
 1205              		.loc 1 914 22 discriminator 1 view .LVU580
 1206 01a4 B345     		cmp	fp, r6
 823:../libDaisy/Drivers/CMSIS/DSP/Source/TransformFunctions/arm_cfft_radix4_f32.c **** 
 1207              		.loc 1 823 18 view .LVU581
 1208 01a6 93ED013A 		vldr.32	s6, [r3, #4]
 825:../libDaisy/Drivers/CMSIS/DSP/Source/TransformFunctions/arm_cfft_radix4_f32.c ****             ydIn = pSrc[(2u * i3) + 1u];
 1209              		.loc 1 825 18 view .LVU582
 1210 01aa D2ED002A 		vldr.32	s5, [r2]
 829:../libDaisy/Drivers/CMSIS/DSP/Source/TransformFunctions/arm_cfft_radix4_f32.c ****             /* (xb - xd) */
 1211              		.loc 1 829 22 view .LVU583
 1212 01ae 37EE421A 		vsub.f32	s2, s14, s4
 826:../libDaisy/Drivers/CMSIS/DSP/Source/TransformFunctions/arm_cfft_radix4_f32.c **** 
 1213              		.loc 1 826 18 view .LVU584
 1214 01b2 D2ED013A 		vldr.32	s7, [r2, #4]
 833:../libDaisy/Drivers/CMSIS/DSP/Source/TransformFunctions/arm_cfft_radix4_f32.c ****             /* (yb - yd) */
 1215              		.loc 1 833 22 view .LVU585
 1216 01b6 77EEC35A 		vsub.f32	s11, s15, s6
 819:../libDaisy/Drivers/CMSIS/DSP/Source/TransformFunctions/arm_cfft_radix4_f32.c ****             ybIn = pSrc[(2u * i1) + 1u];
 1217              		.loc 1 819 18 view .LVU586
 1218 01ba D1ED006A 		vldr.32	s13, [r1]
 1219              	.LVL161:
 820:../libDaisy/Drivers/CMSIS/DSP/Source/TransformFunctions/arm_cfft_radix4_f32.c **** 
 1220              		.loc 1 820 13 is_stmt 1 view .LVU587
 838:../libDaisy/Drivers/CMSIS/DSP/Source/TransformFunctions/arm_cfft_radix4_f32.c ****             /* xb + xd */
 1221              		.loc 1 838 21 is_stmt 0 view .LVU588
 1222 01be 37EE027A 		vadd.f32	s14, s14, s4
 1223              	.LVL162:
 820:../libDaisy/Drivers/CMSIS/DSP/Source/TransformFunctions/arm_cfft_radix4_f32.c **** 
 1224              		.loc 1 820 18 view .LVU589
 1225 01c2 91ED015A 		vldr.32	s10, [r1, #4]
 1226              	.LVL163:
 822:../libDaisy/Drivers/CMSIS/DSP/Source/TransformFunctions/arm_cfft_radix4_f32.c ****             ycIn = pSrc[(2u * i2) + 1u];
 1227              		.loc 1 822 13 is_stmt 1 view .LVU590
 823:../libDaisy/Drivers/CMSIS/DSP/Source/TransformFunctions/arm_cfft_radix4_f32.c **** 
 1228              		.loc 1 823 13 view .LVU591
 825:../libDaisy/Drivers/CMSIS/DSP/Source/TransformFunctions/arm_cfft_radix4_f32.c ****             ydIn = pSrc[(2u * i3) + 1u];
 1229              		.loc 1 825 13 view .LVU592
 826:../libDaisy/Drivers/CMSIS/DSP/Source/TransformFunctions/arm_cfft_radix4_f32.c **** 
 1230              		.loc 1 826 13 view .LVU593
 829:../libDaisy/Drivers/CMSIS/DSP/Source/TransformFunctions/arm_cfft_radix4_f32.c ****             /* (xb - xd) */
 1231              		.loc 1 829 13 view .LVU594
 831:../libDaisy/Drivers/CMSIS/DSP/Source/TransformFunctions/arm_cfft_radix4_f32.c ****             /* ya - yc */
 1232              		.loc 1 831 13 view .LVU595
ARM GAS  /var/folders/6_/psd2b8g56p7696hhrr4ztjs00000gn/T//ccmmdqDi.s 			page 47


 842:../libDaisy/Drivers/CMSIS/DSP/Source/TransformFunctions/arm_cfft_radix4_f32.c ****             /* yb + yd */
 1233              		.loc 1 842 21 is_stmt 0 view .LVU596
 1234 01c6 77EE837A 		vadd.f32	s15, s15, s6
 1235              	.LVL164:
 831:../libDaisy/Drivers/CMSIS/DSP/Source/TransformFunctions/arm_cfft_radix4_f32.c ****             /* ya - yc */
 1236              		.loc 1 831 22 view .LVU597
 1237 01ca 76EEE24A 		vsub.f32	s9, s13, s5
 1238              	.LVL165:
 833:../libDaisy/Drivers/CMSIS/DSP/Source/TransformFunctions/arm_cfft_radix4_f32.c ****             /* (yb - yd) */
 1239              		.loc 1 833 13 is_stmt 1 view .LVU598
 835:../libDaisy/Drivers/CMSIS/DSP/Source/TransformFunctions/arm_cfft_radix4_f32.c **** 
 1240              		.loc 1 835 13 view .LVU599
 835:../libDaisy/Drivers/CMSIS/DSP/Source/TransformFunctions/arm_cfft_radix4_f32.c **** 
 1241              		.loc 1 835 22 is_stmt 0 view .LVU600
 1242 01ce 35EE634A 		vsub.f32	s8, s10, s7
 1243              	.LVL166:
 838:../libDaisy/Drivers/CMSIS/DSP/Source/TransformFunctions/arm_cfft_radix4_f32.c ****             /* xb + xd */
 1244              		.loc 1 838 13 is_stmt 1 view .LVU601
 840:../libDaisy/Drivers/CMSIS/DSP/Source/TransformFunctions/arm_cfft_radix4_f32.c ****             /* ya + yc */
 1245              		.loc 1 840 13 view .LVU602
 840:../libDaisy/Drivers/CMSIS/DSP/Source/TransformFunctions/arm_cfft_radix4_f32.c ****             /* ya + yc */
 1246              		.loc 1 840 21 is_stmt 0 view .LVU603
 1247 01d2 76EEA26A 		vadd.f32	s13, s13, s5
 1248              	.LVL167:
 842:../libDaisy/Drivers/CMSIS/DSP/Source/TransformFunctions/arm_cfft_radix4_f32.c ****             /* yb + yd */
 1249              		.loc 1 842 13 is_stmt 1 view .LVU604
 844:../libDaisy/Drivers/CMSIS/DSP/Source/TransformFunctions/arm_cfft_radix4_f32.c **** 
 1250              		.loc 1 844 13 view .LVU605
 849:../libDaisy/Drivers/CMSIS/DSP/Source/TransformFunctions/arm_cfft_radix4_f32.c ****             /* xa + xc -(xb + xd) */
 1251              		.loc 1 849 23 is_stmt 0 view .LVU606
 1252 01d6 74EEA50A 		vadd.f32	s1, s9, s11
 855:../libDaisy/Drivers/CMSIS/DSP/Source/TransformFunctions/arm_cfft_radix4_f32.c ****             /* (ya - yc) -  (xb - xd) */
 1253              		.loc 1 855 23 view .LVU607
 1254 01da 31EE04BA 		vadd.f32	s22, s2, s8
 857:../libDaisy/Drivers/CMSIS/DSP/Source/TransformFunctions/arm_cfft_radix4_f32.c **** 
 1255              		.loc 1 857 23 view .LVU608
 1256 01de 75EEE45A 		vsub.f32	s11, s11, s9
 1257              	.LVL168:
 844:../libDaisy/Drivers/CMSIS/DSP/Source/TransformFunctions/arm_cfft_radix4_f32.c **** 
 1258              		.loc 1 844 21 view .LVU609
 1259 01e2 35EE235A 		vadd.f32	s10, s10, s7
 1260              	.LVL169:
 847:../libDaisy/Drivers/CMSIS/DSP/Source/TransformFunctions/arm_cfft_radix4_f32.c ****             /* (ya - yc) +  (xb - xd) */
 1261              		.loc 1 847 13 is_stmt 1 view .LVU610
 847:../libDaisy/Drivers/CMSIS/DSP/Source/TransformFunctions/arm_cfft_radix4_f32.c ****             /* (ya - yc) +  (xb - xd) */
 1262              		.loc 1 847 23 is_stmt 0 view .LVU611
 1263 01e6 71EE44AA 		vsub.f32	s21, s2, s8
 1264              	.LVL170:
 849:../libDaisy/Drivers/CMSIS/DSP/Source/TransformFunctions/arm_cfft_radix4_f32.c ****             /* xa + xc -(xb + xd) */
 1265              		.loc 1 849 13 is_stmt 1 view .LVU612
 851:../libDaisy/Drivers/CMSIS/DSP/Source/TransformFunctions/arm_cfft_radix4_f32.c ****             /* (ya + yc) - (yb + yd) */
 1266              		.loc 1 851 13 view .LVU613
 851:../libDaisy/Drivers/CMSIS/DSP/Source/TransformFunctions/arm_cfft_radix4_f32.c ****             /* (ya + yc) - (yb + yd) */
 1267              		.loc 1 851 23 is_stmt 0 view .LVU614
 1268 01ea 77EE661A 		vsub.f32	s3, s14, s13
 1269              	.LVL171:
 853:../libDaisy/Drivers/CMSIS/DSP/Source/TransformFunctions/arm_cfft_radix4_f32.c ****             /* (xa - xc) + (yb - yd) */
ARM GAS  /var/folders/6_/psd2b8g56p7696hhrr4ztjs00000gn/T//ccmmdqDi.s 			page 48


 1270              		.loc 1 853 13 is_stmt 1 view .LVU615
 853:../libDaisy/Drivers/CMSIS/DSP/Source/TransformFunctions/arm_cfft_radix4_f32.c ****             /* (xa - xc) + (yb - yd) */
 1271              		.loc 1 853 23 is_stmt 0 view .LVU616
 1272 01ee 37EEC51A 		vsub.f32	s2, s15, s10
 1273              	.LVL172:
 855:../libDaisy/Drivers/CMSIS/DSP/Source/TransformFunctions/arm_cfft_radix4_f32.c ****             /* (ya - yc) -  (xb - xd) */
 1274              		.loc 1 855 13 is_stmt 1 view .LVU617
 857:../libDaisy/Drivers/CMSIS/DSP/Source/TransformFunctions/arm_cfft_radix4_f32.c **** 
 1275              		.loc 1 857 13 view .LVU618
 859:../libDaisy/Drivers/CMSIS/DSP/Source/TransformFunctions/arm_cfft_radix4_f32.c ****             pSrc[(2u * i0) + 1u] = Yaplusc + Ybplusd;
 1276              		.loc 1 859 13 view .LVU619
 886:../libDaisy/Drivers/CMSIS/DSP/Source/TransformFunctions/arm_cfft_radix4_f32.c **** 
 1277              		.loc 1 886 16 is_stmt 0 view .LVU620
 1278 01f2 60EE0B4A 		vmul.f32	s9, s0, s22
 1279              	.LVL173:
 892:../libDaisy/Drivers/CMSIS/DSP/Source/TransformFunctions/arm_cfft_radix4_f32.c ****             Yd12_out += p5;
 1280              		.loc 1 892 22 view .LVU621
 1281 01f6 25EEC04A 		vnmul.f32	s8, s11, s0
 1282              	.LVL174:
 874:../libDaisy/Drivers/CMSIS/DSP/Source/TransformFunctions/arm_cfft_radix4_f32.c ****             /* xc' = (xa-xb+xc-xd)co2 - (ya-yb+yc-yd)(si2) */
 1283              		.loc 1 874 16 view .LVU622
 1284 01fa 69EEAA3A 		vmul.f32	s7, s19, s21
 1285              	.LVL175:
 911:../libDaisy/Drivers/CMSIS/DSP/Source/TransformFunctions/arm_cfft_radix4_f32.c **** 
 1286              		.loc 1 911 34 view .LVU623
 1287 01fe E8EE254A 		vfma.f32	s9, s16, s11
 888:../libDaisy/Drivers/CMSIS/DSP/Source/TransformFunctions/arm_cfft_radix4_f32.c ****             Yb12_out += p1;
 1288              		.loc 1 888 22 view .LVU624
 1289 0202 20EEE93A 		vnmul.f32	s6, s1, s19
 1290              	.LVL176:
 880:../libDaisy/Drivers/CMSIS/DSP/Source/TransformFunctions/arm_cfft_radix4_f32.c ****             /* xd' = (xa-yb-xc+yd)co3 - (ya+xb-yc-xd)(si3) */
 1291              		.loc 1 880 16 view .LVU625
 1292 0206 28EEA12A 		vmul.f32	s4, s17, s3
 1293              	.LVL177:
 890:../libDaisy/Drivers/CMSIS/DSP/Source/TransformFunctions/arm_cfft_radix4_f32.c ****             Yc12_out += p3;
 1294              		.loc 1 890 22 view .LVU626
 1295 020a 61EE682A 		vnmul.f32	s5, s2, s17
 1296              	.LVL178:
 892:../libDaisy/Drivers/CMSIS/DSP/Source/TransformFunctions/arm_cfft_radix4_f32.c ****             Yd12_out += p5;
 1297              		.loc 1 892 22 view .LVU627
 1298 020e F0EE445A 		vmov.f32	s11, s8
 1299              	.LVL179:
 888:../libDaisy/Drivers/CMSIS/DSP/Source/TransformFunctions/arm_cfft_radix4_f32.c ****             Yb12_out += p1;
 1300              		.loc 1 888 22 view .LVU628
 1301 0212 AAEE2A3A 		vfma.f32	s6, s20, s21
 889:../libDaisy/Drivers/CMSIS/DSP/Source/TransformFunctions/arm_cfft_radix4_f32.c ****             Xc12_out -= p2;
 1302              		.loc 1 889 22 view .LVU629
 1303 0216 EAEE203A 		vfma.f32	s7, s20, s1
 891:../libDaisy/Drivers/CMSIS/DSP/Source/TransformFunctions/arm_cfft_radix4_f32.c ****             Xd12_out -= p4;
 1304              		.loc 1 891 22 view .LVU630
 1305 021a A9EE012A 		vfma.f32	s4, s18, s2
 890:../libDaisy/Drivers/CMSIS/DSP/Source/TransformFunctions/arm_cfft_radix4_f32.c ****             Yc12_out += p3;
 1306              		.loc 1 890 22 view .LVU631
 1307 021e E9EE212A 		vfma.f32	s5, s18, s3
 892:../libDaisy/Drivers/CMSIS/DSP/Source/TransformFunctions/arm_cfft_radix4_f32.c ****             Yd12_out += p5;
 1308              		.loc 1 892 22 view .LVU632
 1309 0222 E8EE0B5A 		vfma.f32	s11, s16, s22
ARM GAS  /var/folders/6_/psd2b8g56p7696hhrr4ztjs00000gn/T//ccmmdqDi.s 			page 49


 859:../libDaisy/Drivers/CMSIS/DSP/Source/TransformFunctions/arm_cfft_radix4_f32.c ****             pSrc[(2u * i0) + 1u] = Yaplusc + Ybplusd;
 1310              		.loc 1 859 39 view .LVU633
 1311 0226 37EE267A 		vadd.f32	s14, s14, s13
 1312              	.LVL180:
 860:../libDaisy/Drivers/CMSIS/DSP/Source/TransformFunctions/arm_cfft_radix4_f32.c **** 
 1313              		.loc 1 860 44 view .LVU634
 1314 022a 77EE857A 		vadd.f32	s15, s15, s10
 1315              	.LVL181:
 859:../libDaisy/Drivers/CMSIS/DSP/Source/TransformFunctions/arm_cfft_radix4_f32.c ****             pSrc[(2u * i0) + 1u] = Yaplusc + Ybplusd;
 1316              		.loc 1 859 29 view .LVU635
 1317 022e 05ED017A 		vstr.32	s14, [r5, #-4]
 1318              	.LVL182:
 860:../libDaisy/Drivers/CMSIS/DSP/Source/TransformFunctions/arm_cfft_radix4_f32.c **** 
 1319              		.loc 1 860 13 is_stmt 1 view .LVU636
 1320              		.loc 1 914 22 is_stmt 0 discriminator 1 view .LVU637
 1321 0232 05EBC005 		add	r5, r5, r0, lsl #3
 860:../libDaisy/Drivers/CMSIS/DSP/Source/TransformFunctions/arm_cfft_radix4_f32.c **** 
 1322              		.loc 1 860 34 view .LVU638
 1323 0236 C4ED017A 		vstr.32	s15, [r4, #4]
 862:../libDaisy/Drivers/CMSIS/DSP/Source/TransformFunctions/arm_cfft_radix4_f32.c ****             Yb12_out = Yb12C_out * co1;
 1324              		.loc 1 862 13 is_stmt 1 view .LVU639
 1325              	.LVL183:
 863:../libDaisy/Drivers/CMSIS/DSP/Source/TransformFunctions/arm_cfft_radix4_f32.c ****             Xc12_out = Xc12C_out * co2;
 1326              		.loc 1 863 13 view .LVU640
 864:../libDaisy/Drivers/CMSIS/DSP/Source/TransformFunctions/arm_cfft_radix4_f32.c ****             Yc12_out = Yc12C_out * co2;
 1327              		.loc 1 864 13 view .LVU641
 865:../libDaisy/Drivers/CMSIS/DSP/Source/TransformFunctions/arm_cfft_radix4_f32.c ****             Xd12_out = Xd12C_out * co3;
 1328              		.loc 1 865 13 view .LVU642
 866:../libDaisy/Drivers/CMSIS/DSP/Source/TransformFunctions/arm_cfft_radix4_f32.c ****             Yd12_out = Yd12C_out * co3;
 1329              		.loc 1 866 13 view .LVU643
 867:../libDaisy/Drivers/CMSIS/DSP/Source/TransformFunctions/arm_cfft_radix4_f32.c **** 
 1330              		.loc 1 867 13 view .LVU644
 871:../libDaisy/Drivers/CMSIS/DSP/Source/TransformFunctions/arm_cfft_radix4_f32.c ****             /* yb' = (ya-xb-yc+xd)co1 + (xa+yb-xc-yd)(si1) */
 1331              		.loc 1 871 13 view .LVU645
 874:../libDaisy/Drivers/CMSIS/DSP/Source/TransformFunctions/arm_cfft_radix4_f32.c ****             /* xc' = (xa-xb+xc-xd)co2 - (ya-yb+yc-yd)(si2) */
 1332              		.loc 1 874 13 view .LVU646
 877:../libDaisy/Drivers/CMSIS/DSP/Source/TransformFunctions/arm_cfft_radix4_f32.c ****             /* yc' = (ya-yb+yc-yd)co2 + (xa-xb+xc-xd)(si2) */
 1333              		.loc 1 877 13 view .LVU647
 880:../libDaisy/Drivers/CMSIS/DSP/Source/TransformFunctions/arm_cfft_radix4_f32.c ****             /* xd' = (xa-yb-xc+yd)co3 - (ya+xb-yc-xd)(si3) */
 1334              		.loc 1 880 13 view .LVU648
 883:../libDaisy/Drivers/CMSIS/DSP/Source/TransformFunctions/arm_cfft_radix4_f32.c ****             /* yd' = (ya+xb-yc-xd)co3 + (xa-yb-xc+yd)(si3) */
 1335              		.loc 1 883 13 view .LVU649
 886:../libDaisy/Drivers/CMSIS/DSP/Source/TransformFunctions/arm_cfft_radix4_f32.c **** 
 1336              		.loc 1 886 13 view .LVU650
 888:../libDaisy/Drivers/CMSIS/DSP/Source/TransformFunctions/arm_cfft_radix4_f32.c ****             Yb12_out += p1;
 1337              		.loc 1 888 13 view .LVU651
 889:../libDaisy/Drivers/CMSIS/DSP/Source/TransformFunctions/arm_cfft_radix4_f32.c ****             Xc12_out -= p2;
 1338              		.loc 1 889 13 view .LVU652
 890:../libDaisy/Drivers/CMSIS/DSP/Source/TransformFunctions/arm_cfft_radix4_f32.c ****             Yc12_out += p3;
 1339              		.loc 1 890 13 view .LVU653
 891:../libDaisy/Drivers/CMSIS/DSP/Source/TransformFunctions/arm_cfft_radix4_f32.c ****             Xd12_out -= p4;
 1340              		.loc 1 891 13 view .LVU654
 892:../libDaisy/Drivers/CMSIS/DSP/Source/TransformFunctions/arm_cfft_radix4_f32.c ****             Yd12_out += p5;
 1341              		.loc 1 892 13 view .LVU655
 893:../libDaisy/Drivers/CMSIS/DSP/Source/TransformFunctions/arm_cfft_radix4_f32.c **** 
 1342              		.loc 1 893 13 view .LVU656
 896:../libDaisy/Drivers/CMSIS/DSP/Source/TransformFunctions/arm_cfft_radix4_f32.c **** 
ARM GAS  /var/folders/6_/psd2b8g56p7696hhrr4ztjs00000gn/T//ccmmdqDi.s 			page 50


 1343              		.loc 1 896 13 view .LVU657
 1344              		.loc 1 914 22 is_stmt 0 discriminator 1 view .LVU658
 1345 023a 04EBC004 		add	r4, r4, r0, lsl #3
 899:../libDaisy/Drivers/CMSIS/DSP/Source/TransformFunctions/arm_cfft_radix4_f32.c **** 
 1346              		.loc 1 899 34 view .LVU659
 1347 023e 81ED012A 		vstr.32	s4, [r1, #4]
 896:../libDaisy/Drivers/CMSIS/DSP/Source/TransformFunctions/arm_cfft_radix4_f32.c **** 
 1348              		.loc 1 896 27 view .LVU660
 1349 0242 C1ED002A 		vstr.32	s5, [r1]
 899:../libDaisy/Drivers/CMSIS/DSP/Source/TransformFunctions/arm_cfft_radix4_f32.c **** 
 1350              		.loc 1 899 13 is_stmt 1 view .LVU661
 902:../libDaisy/Drivers/CMSIS/DSP/Source/TransformFunctions/arm_cfft_radix4_f32.c **** 
 1351              		.loc 1 902 13 view .LVU662
 1352              		.loc 1 914 22 is_stmt 0 discriminator 1 view .LVU663
 1353 0246 01EBC001 		add	r1, r1, r0, lsl #3
 902:../libDaisy/Drivers/CMSIS/DSP/Source/TransformFunctions/arm_cfft_radix4_f32.c **** 
 1354              		.loc 1 902 27 view .LVU664
 1355 024a 83ED003A 		vstr.32	s6, [r3]
 905:../libDaisy/Drivers/CMSIS/DSP/Source/TransformFunctions/arm_cfft_radix4_f32.c **** 
 1356              		.loc 1 905 13 is_stmt 1 view .LVU665
 905:../libDaisy/Drivers/CMSIS/DSP/Source/TransformFunctions/arm_cfft_radix4_f32.c **** 
 1357              		.loc 1 905 34 is_stmt 0 view .LVU666
 1358 024e C3ED013A 		vstr.32	s7, [r3, #4]
 908:../libDaisy/Drivers/CMSIS/DSP/Source/TransformFunctions/arm_cfft_radix4_f32.c **** 
 1359              		.loc 1 908 13 is_stmt 1 view .LVU667
 1360              		.loc 1 914 22 is_stmt 0 discriminator 1 view .LVU668
 1361 0252 03EBC003 		add	r3, r3, r0, lsl #3
 908:../libDaisy/Drivers/CMSIS/DSP/Source/TransformFunctions/arm_cfft_radix4_f32.c **** 
 1362              		.loc 1 908 27 view .LVU669
 1363 0256 C2ED005A 		vstr.32	s11, [r2]
 911:../libDaisy/Drivers/CMSIS/DSP/Source/TransformFunctions/arm_cfft_radix4_f32.c **** 
 1364              		.loc 1 911 13 is_stmt 1 view .LVU670
 911:../libDaisy/Drivers/CMSIS/DSP/Source/TransformFunctions/arm_cfft_radix4_f32.c **** 
 1365              		.loc 1 911 34 is_stmt 0 view .LVU671
 1366 025a C2ED014A 		vstr.32	s9, [r2, #4]
 913:../libDaisy/Drivers/CMSIS/DSP/Source/TransformFunctions/arm_cfft_radix4_f32.c ****          } while (i0 < fftLen);
 1367              		.loc 1 913 13 is_stmt 1 view .LVU672
 1368              	.LVL184:
 1369              		.loc 1 914 22 discriminator 1 view .LVU673
 1370 025e 02EBC002 		add	r2, r2, r0, lsl #3
 1371 0262 98D8     		bhi	.L20
 915:../libDaisy/Drivers/CMSIS/DSP/Source/TransformFunctions/arm_cfft_radix4_f32.c ****          j++;
 1372              		.loc 1 915 10 view .LVU674
 916:../libDaisy/Drivers/CMSIS/DSP/Source/TransformFunctions/arm_cfft_radix4_f32.c ****       } while (j <= (n2 - 1u));
 1373              		.loc 1 916 18 is_stmt 0 view .LVU675
 1374 0264 039B     		ldr	r3, [sp, #12]
 915:../libDaisy/Drivers/CMSIS/DSP/Source/TransformFunctions/arm_cfft_radix4_f32.c ****          j++;
 1375              		.loc 1 915 11 view .LVU676
 1376 0266 0CF1010C 		add	ip, ip, #1
 1377              	.LVL185:
 1378              		.loc 1 916 18 is_stmt 1 view .LVU677
 1379 026a 0837     		adds	r7, r7, #8
 1380 026c 0AF1080A 		add	r10, r10, #8
 1381 0270 9E44     		add	lr, lr, r3
 1382 0272 029B     		ldr	r3, [sp, #8]
 1383 0274 9844     		add	r8, r8, r3
 1384 0276 049B     		ldr	r3, [sp, #16]
ARM GAS  /var/folders/6_/psd2b8g56p7696hhrr4ztjs00000gn/T//ccmmdqDi.s 			page 51


 1385 0278 09EBC309 		add	r9, r9, r3, lsl #3
 1386 027c 009B     		ldr	r3, [sp]
 1387 027e 6345     		cmp	r3, ip
 1388 0280 7FF475AF 		bne	.L21
 917:../libDaisy/Drivers/CMSIS/DSP/Source/TransformFunctions/arm_cfft_radix4_f32.c ****       twidCoefModifier <<= 2u;
 1389              		.loc 1 917 24 is_stmt 0 view .LVU678
 1390 0284 DDE90532 		ldrd	r3, r2, [sp, #20]
 1391 0288 DDE90714 		ldrd	r1, r4, [sp, #28]
 1392              		.loc 1 917 7 is_stmt 1 view .LVU679
 783:../libDaisy/Drivers/CMSIS/DSP/Source/TransformFunctions/arm_cfft_radix4_f32.c ****    {
 1393              		.loc 1 783 37 is_stmt 0 discriminator 2 view .LVU680
 1394 028c 9208     		lsrs	r2, r2, #2
 1395              		.loc 1 917 24 view .LVU681
 1396 028e 9B00     		lsls	r3, r3, #2
 783:../libDaisy/Drivers/CMSIS/DSP/Source/TransformFunctions/arm_cfft_radix4_f32.c ****    {
 1397              		.loc 1 783 29 discriminator 1 view .LVU682
 1398 0290 042A     		cmp	r2, #4
 1399              		.loc 1 917 24 view .LVU683
 1400 0292 9BB2     		uxth	r3, r3
 1401              	.LVL186:
 783:../libDaisy/Drivers/CMSIS/DSP/Source/TransformFunctions/arm_cfft_radix4_f32.c ****    {
 1402              		.loc 1 783 37 is_stmt 1 discriminator 2 view .LVU684
 783:../libDaisy/Drivers/CMSIS/DSP/Source/TransformFunctions/arm_cfft_radix4_f32.c ****    {
 1403              		.loc 1 783 29 discriminator 1 view .LVU685
 1404 0294 3FF652AF 		bhi	.L22
 1405 0298 0998     		ldr	r0, [sp, #36]
 1406              	.LVL187:
 783:../libDaisy/Drivers/CMSIS/DSP/Source/TransformFunctions/arm_cfft_radix4_f32.c ****    {
 1407              		.loc 1 783 29 is_stmt 0 discriminator 1 view .LVU686
 1408 029a A446     		mov	ip, r4
 1409              	.LVL188:
 1410              	.L23:
 783:../libDaisy/Drivers/CMSIS/DSP/Source/TransformFunctions/arm_cfft_radix4_f32.c ****    {
 1411              		.loc 1 783 29 discriminator 1 view .LVU687
 1412 029c 0CF12003 		add	r3, ip, #32
 1413              	.L19:
 1414              	.LVL189:
 918:../libDaisy/Drivers/CMSIS/DSP/Source/TransformFunctions/arm_cfft_radix4_f32.c ****    }
 919:../libDaisy/Drivers/CMSIS/DSP/Source/TransformFunctions/arm_cfft_radix4_f32.c ****    /*  Initializations of last stage */
 920:../libDaisy/Drivers/CMSIS/DSP/Source/TransformFunctions/arm_cfft_radix4_f32.c **** 
 921:../libDaisy/Drivers/CMSIS/DSP/Source/TransformFunctions/arm_cfft_radix4_f32.c ****    j = fftLen >> 2;
 922:../libDaisy/Drivers/CMSIS/DSP/Source/TransformFunctions/arm_cfft_radix4_f32.c ****    ptr1 = &pSrc[0];
 923:../libDaisy/Drivers/CMSIS/DSP/Source/TransformFunctions/arm_cfft_radix4_f32.c **** 
 924:../libDaisy/Drivers/CMSIS/DSP/Source/TransformFunctions/arm_cfft_radix4_f32.c ****    /*  Calculations of last stage */
 925:../libDaisy/Drivers/CMSIS/DSP/Source/TransformFunctions/arm_cfft_radix4_f32.c ****    do
 1415              		.loc 1 925 4 is_stmt 1 view .LVU688
 926:../libDaisy/Drivers/CMSIS/DSP/Source/TransformFunctions/arm_cfft_radix4_f32.c ****    {
 927:../libDaisy/Drivers/CMSIS/DSP/Source/TransformFunctions/arm_cfft_radix4_f32.c ****       xaIn = ptr1[0];
 1416              		.loc 1 927 7 view .LVU689
 928:../libDaisy/Drivers/CMSIS/DSP/Source/TransformFunctions/arm_cfft_radix4_f32.c ****       yaIn = ptr1[1];
 929:../libDaisy/Drivers/CMSIS/DSP/Source/TransformFunctions/arm_cfft_radix4_f32.c ****       xbIn = ptr1[2];
 930:../libDaisy/Drivers/CMSIS/DSP/Source/TransformFunctions/arm_cfft_radix4_f32.c ****       ybIn = ptr1[3];
 931:../libDaisy/Drivers/CMSIS/DSP/Source/TransformFunctions/arm_cfft_radix4_f32.c ****       xcIn = ptr1[4];
 1417              		.loc 1 931 12 is_stmt 0 view .LVU690
 1418 02a0 53ED046A 		vldr.32	s13, [r3, #-16]
 932:../libDaisy/Drivers/CMSIS/DSP/Source/TransformFunctions/arm_cfft_radix4_f32.c ****       ycIn = ptr1[5];
 933:../libDaisy/Drivers/CMSIS/DSP/Source/TransformFunctions/arm_cfft_radix4_f32.c ****       xdIn = ptr1[6];
ARM GAS  /var/folders/6_/psd2b8g56p7696hhrr4ztjs00000gn/T//ccmmdqDi.s 			page 52


 934:../libDaisy/Drivers/CMSIS/DSP/Source/TransformFunctions/arm_cfft_radix4_f32.c ****       ydIn = ptr1[7];
 935:../libDaisy/Drivers/CMSIS/DSP/Source/TransformFunctions/arm_cfft_radix4_f32.c **** 
 936:../libDaisy/Drivers/CMSIS/DSP/Source/TransformFunctions/arm_cfft_radix4_f32.c ****       /*  Butterfly implementation */
 937:../libDaisy/Drivers/CMSIS/DSP/Source/TransformFunctions/arm_cfft_radix4_f32.c ****       /* xa + xc */
 938:../libDaisy/Drivers/CMSIS/DSP/Source/TransformFunctions/arm_cfft_radix4_f32.c ****       Xaplusc = xaIn + xcIn;
 939:../libDaisy/Drivers/CMSIS/DSP/Source/TransformFunctions/arm_cfft_radix4_f32.c **** 
 940:../libDaisy/Drivers/CMSIS/DSP/Source/TransformFunctions/arm_cfft_radix4_f32.c ****       /* xa - xc */
 941:../libDaisy/Drivers/CMSIS/DSP/Source/TransformFunctions/arm_cfft_radix4_f32.c ****       Xaminusc = xaIn - xcIn;
 942:../libDaisy/Drivers/CMSIS/DSP/Source/TransformFunctions/arm_cfft_radix4_f32.c **** 
 943:../libDaisy/Drivers/CMSIS/DSP/Source/TransformFunctions/arm_cfft_radix4_f32.c ****       /* ya + yc */
 944:../libDaisy/Drivers/CMSIS/DSP/Source/TransformFunctions/arm_cfft_radix4_f32.c ****       Yaplusc = yaIn + ycIn;
 945:../libDaisy/Drivers/CMSIS/DSP/Source/TransformFunctions/arm_cfft_radix4_f32.c **** 
 946:../libDaisy/Drivers/CMSIS/DSP/Source/TransformFunctions/arm_cfft_radix4_f32.c ****       /* ya - yc */
 947:../libDaisy/Drivers/CMSIS/DSP/Source/TransformFunctions/arm_cfft_radix4_f32.c ****       Yaminusc = yaIn - ycIn;
 948:../libDaisy/Drivers/CMSIS/DSP/Source/TransformFunctions/arm_cfft_radix4_f32.c **** 
 949:../libDaisy/Drivers/CMSIS/DSP/Source/TransformFunctions/arm_cfft_radix4_f32.c ****       /* xb + xd */
 950:../libDaisy/Drivers/CMSIS/DSP/Source/TransformFunctions/arm_cfft_radix4_f32.c ****       Xbplusd = xbIn + xdIn;
 951:../libDaisy/Drivers/CMSIS/DSP/Source/TransformFunctions/arm_cfft_radix4_f32.c **** 
 952:../libDaisy/Drivers/CMSIS/DSP/Source/TransformFunctions/arm_cfft_radix4_f32.c ****       /* yb + yd */
 953:../libDaisy/Drivers/CMSIS/DSP/Source/TransformFunctions/arm_cfft_radix4_f32.c ****       Ybplusd = ybIn + ydIn;
 954:../libDaisy/Drivers/CMSIS/DSP/Source/TransformFunctions/arm_cfft_radix4_f32.c **** 
 955:../libDaisy/Drivers/CMSIS/DSP/Source/TransformFunctions/arm_cfft_radix4_f32.c ****       /* (xb-xd) */
 956:../libDaisy/Drivers/CMSIS/DSP/Source/TransformFunctions/arm_cfft_radix4_f32.c ****       Xbminusd = xbIn - xdIn;
 957:../libDaisy/Drivers/CMSIS/DSP/Source/TransformFunctions/arm_cfft_radix4_f32.c **** 
 958:../libDaisy/Drivers/CMSIS/DSP/Source/TransformFunctions/arm_cfft_radix4_f32.c ****       /* (yb-yd) */
 959:../libDaisy/Drivers/CMSIS/DSP/Source/TransformFunctions/arm_cfft_radix4_f32.c ****       Ybminusd = ybIn - ydIn;
 960:../libDaisy/Drivers/CMSIS/DSP/Source/TransformFunctions/arm_cfft_radix4_f32.c **** 
 961:../libDaisy/Drivers/CMSIS/DSP/Source/TransformFunctions/arm_cfft_radix4_f32.c ****       /* xa' = (xa+xb+xc+xd) * onebyfftLen */
 962:../libDaisy/Drivers/CMSIS/DSP/Source/TransformFunctions/arm_cfft_radix4_f32.c ****       a0 = (Xaplusc + Xbplusd);
 963:../libDaisy/Drivers/CMSIS/DSP/Source/TransformFunctions/arm_cfft_radix4_f32.c ****       /* ya' = (ya+yb+yc+yd) * onebyfftLen */
 964:../libDaisy/Drivers/CMSIS/DSP/Source/TransformFunctions/arm_cfft_radix4_f32.c ****       a1 = (Yaplusc + Ybplusd);
 965:../libDaisy/Drivers/CMSIS/DSP/Source/TransformFunctions/arm_cfft_radix4_f32.c ****       /* xc' = (xa-xb+xc-xd) * onebyfftLen */
 966:../libDaisy/Drivers/CMSIS/DSP/Source/TransformFunctions/arm_cfft_radix4_f32.c ****       a2 = (Xaplusc - Xbplusd);
 967:../libDaisy/Drivers/CMSIS/DSP/Source/TransformFunctions/arm_cfft_radix4_f32.c ****       /* yc' = (ya-yb+yc-yd) * onebyfftLen  */
 968:../libDaisy/Drivers/CMSIS/DSP/Source/TransformFunctions/arm_cfft_radix4_f32.c ****       a3 = (Yaplusc - Ybplusd);
 969:../libDaisy/Drivers/CMSIS/DSP/Source/TransformFunctions/arm_cfft_radix4_f32.c ****       /* xb' = (xa-yb-xc+yd) * onebyfftLen */
 970:../libDaisy/Drivers/CMSIS/DSP/Source/TransformFunctions/arm_cfft_radix4_f32.c ****       a4 = (Xaminusc - Ybminusd);
 971:../libDaisy/Drivers/CMSIS/DSP/Source/TransformFunctions/arm_cfft_radix4_f32.c ****       /* yb' = (ya+xb-yc-xd) * onebyfftLen */
 972:../libDaisy/Drivers/CMSIS/DSP/Source/TransformFunctions/arm_cfft_radix4_f32.c ****       a5 = (Yaminusc + Xbminusd);
 973:../libDaisy/Drivers/CMSIS/DSP/Source/TransformFunctions/arm_cfft_radix4_f32.c ****       /* xd' = (xa-yb-xc+yd) * onebyfftLen */
 974:../libDaisy/Drivers/CMSIS/DSP/Source/TransformFunctions/arm_cfft_radix4_f32.c ****       a6 = (Xaminusc + Ybminusd);
 975:../libDaisy/Drivers/CMSIS/DSP/Source/TransformFunctions/arm_cfft_radix4_f32.c ****       /* yd' = (ya-xb-yc+xd) * onebyfftLen */
 976:../libDaisy/Drivers/CMSIS/DSP/Source/TransformFunctions/arm_cfft_radix4_f32.c ****       a7 = (Yaminusc - Xbminusd);
 977:../libDaisy/Drivers/CMSIS/DSP/Source/TransformFunctions/arm_cfft_radix4_f32.c **** 
 978:../libDaisy/Drivers/CMSIS/DSP/Source/TransformFunctions/arm_cfft_radix4_f32.c ****       p0 = a0 * onebyfftLen;
 979:../libDaisy/Drivers/CMSIS/DSP/Source/TransformFunctions/arm_cfft_radix4_f32.c ****       p1 = a1 * onebyfftLen;
 980:../libDaisy/Drivers/CMSIS/DSP/Source/TransformFunctions/arm_cfft_radix4_f32.c ****       p2 = a2 * onebyfftLen;
 981:../libDaisy/Drivers/CMSIS/DSP/Source/TransformFunctions/arm_cfft_radix4_f32.c ****       p3 = a3 * onebyfftLen;
 982:../libDaisy/Drivers/CMSIS/DSP/Source/TransformFunctions/arm_cfft_radix4_f32.c ****       p4 = a4 * onebyfftLen;
 983:../libDaisy/Drivers/CMSIS/DSP/Source/TransformFunctions/arm_cfft_radix4_f32.c ****       p5 = a5 * onebyfftLen;
 984:../libDaisy/Drivers/CMSIS/DSP/Source/TransformFunctions/arm_cfft_radix4_f32.c ****       p6 = a6 * onebyfftLen;
 985:../libDaisy/Drivers/CMSIS/DSP/Source/TransformFunctions/arm_cfft_radix4_f32.c ****       p7 = a7 * onebyfftLen;
 986:../libDaisy/Drivers/CMSIS/DSP/Source/TransformFunctions/arm_cfft_radix4_f32.c **** 
 987:../libDaisy/Drivers/CMSIS/DSP/Source/TransformFunctions/arm_cfft_radix4_f32.c ****       /* xa' = (xa+xb+xc+xd) * onebyfftLen */
 988:../libDaisy/Drivers/CMSIS/DSP/Source/TransformFunctions/arm_cfft_radix4_f32.c ****       ptr1[0] = p0;
 989:../libDaisy/Drivers/CMSIS/DSP/Source/TransformFunctions/arm_cfft_radix4_f32.c ****       /* ya' = (ya+yb+yc+yd) * onebyfftLen */
 990:../libDaisy/Drivers/CMSIS/DSP/Source/TransformFunctions/arm_cfft_radix4_f32.c ****       ptr1[1] = p1;
ARM GAS  /var/folders/6_/psd2b8g56p7696hhrr4ztjs00000gn/T//ccmmdqDi.s 			page 53


 991:../libDaisy/Drivers/CMSIS/DSP/Source/TransformFunctions/arm_cfft_radix4_f32.c ****       /* xc' = (xa-xb+xc-xd) * onebyfftLen */
 992:../libDaisy/Drivers/CMSIS/DSP/Source/TransformFunctions/arm_cfft_radix4_f32.c ****       ptr1[2] = p2;
 993:../libDaisy/Drivers/CMSIS/DSP/Source/TransformFunctions/arm_cfft_radix4_f32.c ****       /* yc' = (ya-yb+yc-yd) * onebyfftLen  */
 994:../libDaisy/Drivers/CMSIS/DSP/Source/TransformFunctions/arm_cfft_radix4_f32.c ****       ptr1[3] = p3;
 995:../libDaisy/Drivers/CMSIS/DSP/Source/TransformFunctions/arm_cfft_radix4_f32.c ****       /* xb' = (xa-yb-xc+yd) * onebyfftLen */
 996:../libDaisy/Drivers/CMSIS/DSP/Source/TransformFunctions/arm_cfft_radix4_f32.c ****       ptr1[4] = p4;
 997:../libDaisy/Drivers/CMSIS/DSP/Source/TransformFunctions/arm_cfft_radix4_f32.c ****       /* yb' = (ya+xb-yc-xd) * onebyfftLen */
 998:../libDaisy/Drivers/CMSIS/DSP/Source/TransformFunctions/arm_cfft_radix4_f32.c ****       ptr1[5] = p5;
 999:../libDaisy/Drivers/CMSIS/DSP/Source/TransformFunctions/arm_cfft_radix4_f32.c ****       /* xd' = (xa-yb-xc+yd) * onebyfftLen */
1000:../libDaisy/Drivers/CMSIS/DSP/Source/TransformFunctions/arm_cfft_radix4_f32.c ****       ptr1[6] = p6;
1001:../libDaisy/Drivers/CMSIS/DSP/Source/TransformFunctions/arm_cfft_radix4_f32.c ****       /* yd' = (ya-xb-yc+xd) * onebyfftLen */
1002:../libDaisy/Drivers/CMSIS/DSP/Source/TransformFunctions/arm_cfft_radix4_f32.c ****       ptr1[7] = p7;
1003:../libDaisy/Drivers/CMSIS/DSP/Source/TransformFunctions/arm_cfft_radix4_f32.c **** 
1004:../libDaisy/Drivers/CMSIS/DSP/Source/TransformFunctions/arm_cfft_radix4_f32.c ****       /* increment source pointer by 8 for next calculations */
1005:../libDaisy/Drivers/CMSIS/DSP/Source/TransformFunctions/arm_cfft_radix4_f32.c ****       ptr1 = ptr1 + 8u;
1006:../libDaisy/Drivers/CMSIS/DSP/Source/TransformFunctions/arm_cfft_radix4_f32.c **** 
1007:../libDaisy/Drivers/CMSIS/DSP/Source/TransformFunctions/arm_cfft_radix4_f32.c ****    } while (--j);
 1419              		.loc 1 1007 13 discriminator 1 view .LVU691
 1420 02a4 0138     		subs	r0, r0, #1
 1421              	.LVL190:
 932:../libDaisy/Drivers/CMSIS/DSP/Source/TransformFunctions/arm_cfft_radix4_f32.c ****       ycIn = ptr1[5];
 1422              		.loc 1 932 12 view .LVU692
 1423 02a6 13ED034A 		vldr.32	s8, [r3, #-12]
 1424              		.loc 1 1007 13 discriminator 1 view .LVU693
 1425 02aa 03F12003 		add	r3, r3, #32
 1426              	.LVL191:
 933:../libDaisy/Drivers/CMSIS/DSP/Source/TransformFunctions/arm_cfft_radix4_f32.c ****       ydIn = ptr1[7];
 1427              		.loc 1 933 12 view .LVU694
 1428 02ae 53ED0A2A 		vldr.32	s5, [r3, #-40]
 934:../libDaisy/Drivers/CMSIS/DSP/Source/TransformFunctions/arm_cfft_radix4_f32.c **** 
 1429              		.loc 1 934 12 view .LVU695
 1430 02b2 13ED093A 		vldr.32	s6, [r3, #-36]
 927:../libDaisy/Drivers/CMSIS/DSP/Source/TransformFunctions/arm_cfft_radix4_f32.c ****       yaIn = ptr1[1];
 1431              		.loc 1 927 12 view .LVU696
 1432 02b6 13ED107A 		vldr.32	s14, [r3, #-64]
 1433              	.LVL192:
 928:../libDaisy/Drivers/CMSIS/DSP/Source/TransformFunctions/arm_cfft_radix4_f32.c ****       xbIn = ptr1[2];
 1434              		.loc 1 928 7 is_stmt 1 view .LVU697
 928:../libDaisy/Drivers/CMSIS/DSP/Source/TransformFunctions/arm_cfft_radix4_f32.c ****       xbIn = ptr1[2];
 1435              		.loc 1 928 12 is_stmt 0 view .LVU698
 1436 02ba 53ED0F7A 		vldr.32	s15, [r3, #-60]
 1437              	.LVL193:
 929:../libDaisy/Drivers/CMSIS/DSP/Source/TransformFunctions/arm_cfft_radix4_f32.c ****       ybIn = ptr1[3];
 1438              		.loc 1 929 7 is_stmt 1 view .LVU699
 929:../libDaisy/Drivers/CMSIS/DSP/Source/TransformFunctions/arm_cfft_radix4_f32.c ****       ybIn = ptr1[3];
 1439              		.loc 1 929 12 is_stmt 0 view .LVU700
 1440 02be 13ED0E5A 		vldr.32	s10, [r3, #-56]
 1441              	.LVL194:
 930:../libDaisy/Drivers/CMSIS/DSP/Source/TransformFunctions/arm_cfft_radix4_f32.c ****       xcIn = ptr1[4];
 1442              		.loc 1 930 7 is_stmt 1 view .LVU701
 938:../libDaisy/Drivers/CMSIS/DSP/Source/TransformFunctions/arm_cfft_radix4_f32.c **** 
 1443              		.loc 1 938 15 is_stmt 0 view .LVU702
 1444 02c2 77EE265A 		vadd.f32	s11, s14, s13
 930:../libDaisy/Drivers/CMSIS/DSP/Source/TransformFunctions/arm_cfft_radix4_f32.c ****       xcIn = ptr1[4];
 1445              		.loc 1 930 12 view .LVU703
 1446 02c6 53ED0D4A 		vldr.32	s9, [r3, #-52]
 1447              	.LVL195:
ARM GAS  /var/folders/6_/psd2b8g56p7696hhrr4ztjs00000gn/T//ccmmdqDi.s 			page 54


 931:../libDaisy/Drivers/CMSIS/DSP/Source/TransformFunctions/arm_cfft_radix4_f32.c ****       ycIn = ptr1[5];
 1448              		.loc 1 931 7 is_stmt 1 view .LVU704
 932:../libDaisy/Drivers/CMSIS/DSP/Source/TransformFunctions/arm_cfft_radix4_f32.c ****       xdIn = ptr1[6];
 1449              		.loc 1 932 7 view .LVU705
 933:../libDaisy/Drivers/CMSIS/DSP/Source/TransformFunctions/arm_cfft_radix4_f32.c ****       ydIn = ptr1[7];
 1450              		.loc 1 933 7 view .LVU706
 934:../libDaisy/Drivers/CMSIS/DSP/Source/TransformFunctions/arm_cfft_radix4_f32.c **** 
 1451              		.loc 1 934 7 view .LVU707
 938:../libDaisy/Drivers/CMSIS/DSP/Source/TransformFunctions/arm_cfft_radix4_f32.c **** 
 1452              		.loc 1 938 7 view .LVU708
 941:../libDaisy/Drivers/CMSIS/DSP/Source/TransformFunctions/arm_cfft_radix4_f32.c **** 
 1453              		.loc 1 941 7 view .LVU709
 941:../libDaisy/Drivers/CMSIS/DSP/Source/TransformFunctions/arm_cfft_radix4_f32.c **** 
 1454              		.loc 1 941 16 is_stmt 0 view .LVU710
 1455 02ca 37EE667A 		vsub.f32	s14, s14, s13
 1456              	.LVL196:
 944:../libDaisy/Drivers/CMSIS/DSP/Source/TransformFunctions/arm_cfft_radix4_f32.c **** 
 1457              		.loc 1 944 7 is_stmt 1 view .LVU711
 950:../libDaisy/Drivers/CMSIS/DSP/Source/TransformFunctions/arm_cfft_radix4_f32.c **** 
 1458              		.loc 1 950 15 is_stmt 0 view .LVU712
 1459 02ce 75EE223A 		vadd.f32	s7, s10, s5
 944:../libDaisy/Drivers/CMSIS/DSP/Source/TransformFunctions/arm_cfft_radix4_f32.c **** 
 1460              		.loc 1 944 15 view .LVU713
 1461 02d2 77EE846A 		vadd.f32	s13, s15, s8
 1462              	.LVL197:
 947:../libDaisy/Drivers/CMSIS/DSP/Source/TransformFunctions/arm_cfft_radix4_f32.c **** 
 1463              		.loc 1 947 7 is_stmt 1 view .LVU714
 956:../libDaisy/Drivers/CMSIS/DSP/Source/TransformFunctions/arm_cfft_radix4_f32.c **** 
 1464              		.loc 1 956 16 is_stmt 0 view .LVU715
 1465 02d6 35EE625A 		vsub.f32	s10, s10, s5
 1466              	.LVL198:
 947:../libDaisy/Drivers/CMSIS/DSP/Source/TransformFunctions/arm_cfft_radix4_f32.c **** 
 1467              		.loc 1 947 16 view .LVU716
 1468 02da 77EEC47A 		vsub.f32	s15, s15, s8
 1469              	.LVL199:
 950:../libDaisy/Drivers/CMSIS/DSP/Source/TransformFunctions/arm_cfft_radix4_f32.c **** 
 1470              		.loc 1 950 7 is_stmt 1 view .LVU717
 953:../libDaisy/Drivers/CMSIS/DSP/Source/TransformFunctions/arm_cfft_radix4_f32.c **** 
 1471              		.loc 1 953 7 view .LVU718
 953:../libDaisy/Drivers/CMSIS/DSP/Source/TransformFunctions/arm_cfft_radix4_f32.c **** 
 1472              		.loc 1 953 15 is_stmt 0 view .LVU719
 1473 02de 34EE834A 		vadd.f32	s8, s9, s6
 1474              	.LVL200:
 956:../libDaisy/Drivers/CMSIS/DSP/Source/TransformFunctions/arm_cfft_radix4_f32.c **** 
 1475              		.loc 1 956 7 is_stmt 1 view .LVU720
 959:../libDaisy/Drivers/CMSIS/DSP/Source/TransformFunctions/arm_cfft_radix4_f32.c **** 
 1476              		.loc 1 959 7 view .LVU721
 959:../libDaisy/Drivers/CMSIS/DSP/Source/TransformFunctions/arm_cfft_radix4_f32.c **** 
 1477              		.loc 1 959 16 is_stmt 0 view .LVU722
