ARM GAS  /var/folders/6_/psd2b8g56p7696hhrr4ztjs00000gn/T//ccF5R8G2.s 			page 1


   1              		.cpu cortex-m7
   2              		.arch armv7e-m
   3              		.fpu fpv5-d16
   4              		.eabi_attribute 28, 1
   5              		.eabi_attribute 20, 1
   6              		.eabi_attribute 21, 1
   7              		.eabi_attribute 23, 3
   8              		.eabi_attribute 24, 1
   9              		.eabi_attribute 25, 1
  10              		.eabi_attribute 26, 1
  11              		.eabi_attribute 30, 2
  12              		.eabi_attribute 34, 1
  13              		.eabi_attribute 18, 4
  14              		.file	"ReactivePedal.cpp"
  15              		.text
  16              	.Ltext0:
  17              		.cfi_sections	.debug_frame
  18              		.file 1 "ReactivePedal.cpp"
  19              		.section	.text._ZN5daisy8DaisyPodD2Ev,"axG",%progbits,_ZN5daisy8DaisyPodD5Ev,comdat
  20              		.align	1
  21              		.p2align 2,,3
  22              		.weak	_ZN5daisy8DaisyPodD2Ev
  23              		.syntax unified
  24              		.thumb
  25              		.thumb_func
  27              	_ZN5daisy8DaisyPodD2Ev:
  28              	.LVL0:
  29              	.LFB2352:
  30              		.file 2 "../libDaisy/src/daisy_pod.h"
   1:../libDaisy/src/daisy_pod.h **** #pragma once
   2:../libDaisy/src/daisy_pod.h **** #ifndef DSY_POD_BSP_H
   3:../libDaisy/src/daisy_pod.h **** #define DSY_POD_BSP_H
   4:../libDaisy/src/daisy_pod.h **** 
   5:../libDaisy/src/daisy_pod.h **** #include "daisy_seed.h"
   6:../libDaisy/src/daisy_pod.h **** 
   7:../libDaisy/src/daisy_pod.h **** namespace daisy
   8:../libDaisy/src/daisy_pod.h **** {
   9:../libDaisy/src/daisy_pod.h **** /**
  10:../libDaisy/src/daisy_pod.h ****     @brief Class that handles initializing all of the hardware specific to the Daisy Patch Board. \
  11:../libDaisy/src/daisy_pod.h ****     Helper funtions are also in place to provide easy access to built-in controls and peripherals.
  12:../libDaisy/src/daisy_pod.h ****     @author Stephen Hensley
  13:../libDaisy/src/daisy_pod.h ****     @date November 2019
  14:../libDaisy/src/daisy_pod.h ****     @ingroup boards
  15:../libDaisy/src/daisy_pod.h **** */
  16:../libDaisy/src/daisy_pod.h **** class DaisyPod
  17:../libDaisy/src/daisy_pod.h **** {
  18:../libDaisy/src/daisy_pod.h ****   public:
  19:../libDaisy/src/daisy_pod.h ****     /** Switches */
  20:../libDaisy/src/daisy_pod.h ****     enum Sw
  21:../libDaisy/src/daisy_pod.h ****     {
  22:../libDaisy/src/daisy_pod.h ****         BUTTON_1,    /** & */
  23:../libDaisy/src/daisy_pod.h ****         BUTTON_2,    /** & */
  24:../libDaisy/src/daisy_pod.h ****         BUTTON_LAST, /** &  */
  25:../libDaisy/src/daisy_pod.h ****     };
  26:../libDaisy/src/daisy_pod.h **** 
  27:../libDaisy/src/daisy_pod.h ****     /** Knobs */
  28:../libDaisy/src/daisy_pod.h ****     enum Knob
ARM GAS  /var/folders/6_/psd2b8g56p7696hhrr4ztjs00000gn/T//ccF5R8G2.s 			page 2


  29:../libDaisy/src/daisy_pod.h ****     {
  30:../libDaisy/src/daisy_pod.h ****         KNOB_1,    /** &  */
  31:../libDaisy/src/daisy_pod.h ****         KNOB_2,    /** & */
  32:../libDaisy/src/daisy_pod.h ****         KNOB_LAST, /** & */
  33:../libDaisy/src/daisy_pod.h ****     };
  34:../libDaisy/src/daisy_pod.h **** 
  35:../libDaisy/src/daisy_pod.h ****     DaisyPod() {}
  36:../libDaisy/src/daisy_pod.h ****     ~DaisyPod() {}
  31              		.loc 2 36 5 view -0
  32              		.cfi_startproc
  33              		@ args = 0, pretend = 0, frame = 0
  34              		@ frame_needed = 0, uses_anonymous_args = 0
  35              		@ link register save eliminated.
  36              	.LBB250:
  37              	.LBB251:
  38              	.LBI251:
  39              		.file 3 "../libDaisy/src/hid/midi.h"
   1:../libDaisy/src/hid/midi.h **** #pragma once
   2:../libDaisy/src/hid/midi.h **** #ifndef DSY_MIDI_H
   3:../libDaisy/src/hid/midi.h **** #define DSY_MIDI_H
   4:../libDaisy/src/hid/midi.h **** 
   5:../libDaisy/src/hid/midi.h **** #include <stdint.h>
   6:../libDaisy/src/hid/midi.h **** #include <stdlib.h>
   7:../libDaisy/src/hid/midi.h **** #include <algorithm>
   8:../libDaisy/src/hid/midi.h **** #include "per/uart.h"
   9:../libDaisy/src/hid/midi.h **** #include "util/ringbuffer.h"
  10:../libDaisy/src/hid/midi.h **** #include "util/FIFO.h"
  11:../libDaisy/src/hid/midi.h **** #include "hid/midi_parser.h"
  12:../libDaisy/src/hid/midi.h **** #include "hid/usb_midi.h"
  13:../libDaisy/src/hid/midi.h **** #include "sys/dma.h"
  14:../libDaisy/src/hid/midi.h **** #include "sys/system.h"
  15:../libDaisy/src/hid/midi.h **** 
  16:../libDaisy/src/hid/midi.h **** namespace daisy
  17:../libDaisy/src/hid/midi.h **** {
  18:../libDaisy/src/hid/midi.h **** /** @brief   Transport layer for sending and receiving MIDI data over UART
  19:../libDaisy/src/hid/midi.h ****  *  @details This is the mode of communication used for TRS and DIN MIDI
  20:../libDaisy/src/hid/midi.h ****  *           There is an additional 2kB of RAM data used within this class
  21:../libDaisy/src/hid/midi.h ****  *           for processing bulk data from the UART peripheral
  22:../libDaisy/src/hid/midi.h ****  *  @ingroup midi
  23:../libDaisy/src/hid/midi.h **** */
  24:../libDaisy/src/hid/midi.h **** class MidiUartTransport
  25:../libDaisy/src/hid/midi.h **** {
  26:../libDaisy/src/hid/midi.h ****   public:
  27:../libDaisy/src/hid/midi.h ****     typedef void (*MidiRxParseCallback)(uint8_t* data,
  28:../libDaisy/src/hid/midi.h ****                                         size_t   size,
  29:../libDaisy/src/hid/midi.h ****                                         void*    context);
  30:../libDaisy/src/hid/midi.h **** 
  31:../libDaisy/src/hid/midi.h ****     MidiUartTransport() {}
  32:../libDaisy/src/hid/midi.h ****     ~MidiUartTransport() {}
  33:../libDaisy/src/hid/midi.h **** 
  34:../libDaisy/src/hid/midi.h ****     /** @brief Configuration structure for UART MIDI */
  35:../libDaisy/src/hid/midi.h ****     struct Config
  36:../libDaisy/src/hid/midi.h ****     {
  37:../libDaisy/src/hid/midi.h ****         UartHandler::Config::Peripheral periph;
  38:../libDaisy/src/hid/midi.h ****         dsy_gpio_pin                    rx;
  39:../libDaisy/src/hid/midi.h ****         dsy_gpio_pin                    tx;
  40:../libDaisy/src/hid/midi.h **** 
ARM GAS  /var/folders/6_/psd2b8g56p7696hhrr4ztjs00000gn/T//ccF5R8G2.s 			page 3


  41:../libDaisy/src/hid/midi.h ****         /** Pointer to buffer for DMA UART rx byte transfer in background.
  42:../libDaisy/src/hid/midi.h ****          *
  43:../libDaisy/src/hid/midi.h ****          *  @details By default this uses a shared buffer in DMA_BUFFER_MEM_SECTION,
  44:../libDaisy/src/hid/midi.h ****          *           which can only be utilized for a single UART peripheral. To
  45:../libDaisy/src/hid/midi.h ****          *           use MIDI with multiple UART peripherals, you must provide your own
  46:../libDaisy/src/hid/midi.h ****          *           buffer, allocated to a DMA-capable memory section.
  47:../libDaisy/src/hid/midi.h ****          */
  48:../libDaisy/src/hid/midi.h ****         uint8_t* rx_buffer;
  49:../libDaisy/src/hid/midi.h **** 
  50:../libDaisy/src/hid/midi.h ****         /** Size in bytes of rx_buffer.
  51:../libDaisy/src/hid/midi.h ****          *
  52:../libDaisy/src/hid/midi.h ****          *  @details This size determines the maximum Rx bytes readable by the UART in the backgrou
  53:../libDaisy/src/hid/midi.h ****          *           By default it's set to the size of the default shared rx_buffer (256 bytes).
  54:../libDaisy/src/hid/midi.h ****          *           While much smaller sizes can be used, data can get missed if the buffer is too
  55:../libDaisy/src/hid/midi.h ****          */
  56:../libDaisy/src/hid/midi.h ****         size_t rx_buffer_size;
  57:../libDaisy/src/hid/midi.h **** 
  58:../libDaisy/src/hid/midi.h ****         Config();
  59:../libDaisy/src/hid/midi.h ****     };
  60:../libDaisy/src/hid/midi.h **** 
  61:../libDaisy/src/hid/midi.h ****     /** @brief Initialization of UART using config struct */
  62:../libDaisy/src/hid/midi.h ****     inline void Init(Config config)
  63:../libDaisy/src/hid/midi.h ****     {
  64:../libDaisy/src/hid/midi.h ****         UartHandler::Config uart_config;
  65:../libDaisy/src/hid/midi.h **** 
  66:../libDaisy/src/hid/midi.h ****         //defaults
  67:../libDaisy/src/hid/midi.h ****         uart_config.baudrate   = 31250;
  68:../libDaisy/src/hid/midi.h ****         uart_config.stopbits   = UartHandler::Config::StopBits::BITS_1;
  69:../libDaisy/src/hid/midi.h ****         uart_config.parity     = UartHandler::Config::Parity::NONE;
  70:../libDaisy/src/hid/midi.h ****         uart_config.mode       = UartHandler::Config::Mode::TX_RX;
  71:../libDaisy/src/hid/midi.h ****         uart_config.wordlength = UartHandler::Config::WordLength::BITS_8;
  72:../libDaisy/src/hid/midi.h **** 
  73:../libDaisy/src/hid/midi.h ****         //user settings
  74:../libDaisy/src/hid/midi.h ****         uart_config.periph        = config.periph;
  75:../libDaisy/src/hid/midi.h ****         uart_config.pin_config.rx = config.rx;
  76:../libDaisy/src/hid/midi.h ****         uart_config.pin_config.tx = config.tx;
  77:../libDaisy/src/hid/midi.h **** 
  78:../libDaisy/src/hid/midi.h ****         rx_buffer      = config.rx_buffer;
  79:../libDaisy/src/hid/midi.h ****         rx_buffer_size = config.rx_buffer_size;
  80:../libDaisy/src/hid/midi.h **** 
  81:../libDaisy/src/hid/midi.h ****         /** zero the buffer to ensure emptiness regardless of source memory */
  82:../libDaisy/src/hid/midi.h ****         std::fill(rx_buffer, rx_buffer + rx_buffer_size, 0);
  83:../libDaisy/src/hid/midi.h **** 
  84:../libDaisy/src/hid/midi.h ****         uart_.Init(uart_config);
  85:../libDaisy/src/hid/midi.h ****     }
  86:../libDaisy/src/hid/midi.h **** 
  87:../libDaisy/src/hid/midi.h ****     /** @brief Start the UART peripheral in listening mode.
  88:../libDaisy/src/hid/midi.h ****      *  This will fill an internal data structure in the background */
  89:../libDaisy/src/hid/midi.h ****     inline void StartRx(MidiRxParseCallback parse_callback, void* context)
  90:../libDaisy/src/hid/midi.h ****     {
  91:../libDaisy/src/hid/midi.h ****         parse_context_  = context;
  92:../libDaisy/src/hid/midi.h ****         parse_callback_ = parse_callback;
  93:../libDaisy/src/hid/midi.h ****         dsy_dma_clear_cache_for_buffer((uint8_t*)this,
  94:../libDaisy/src/hid/midi.h ****                                        sizeof(MidiUartTransport));
  95:../libDaisy/src/hid/midi.h ****         uart_.DmaListenStart(
  96:../libDaisy/src/hid/midi.h ****             rx_buffer, rx_buffer_size, MidiUartTransport::rxCallback, this);
  97:../libDaisy/src/hid/midi.h ****     }
ARM GAS  /var/folders/6_/psd2b8g56p7696hhrr4ztjs00000gn/T//ccF5R8G2.s 			page 4


  98:../libDaisy/src/hid/midi.h **** 
  99:../libDaisy/src/hid/midi.h ****     /** @brief returns whether the UART peripheral is actively listening in the background or not *
 100:../libDaisy/src/hid/midi.h ****     inline bool RxActive() { return uart_.IsListening(); }
 101:../libDaisy/src/hid/midi.h **** 
 102:../libDaisy/src/hid/midi.h ****     /** @brief This is a no-op for UART transport - Rx is via DMA callback with circular buffer */
 103:../libDaisy/src/hid/midi.h ****     inline void FlushRx() {}
 104:../libDaisy/src/hid/midi.h **** 
 105:../libDaisy/src/hid/midi.h ****     /** @brief sends the buffer of bytes out of the UART peripheral */
 106:../libDaisy/src/hid/midi.h ****     inline void Tx(uint8_t* buff, size_t size) { uart_.PollTx(buff, size); }
 107:../libDaisy/src/hid/midi.h **** 
 108:../libDaisy/src/hid/midi.h ****   private:
 109:../libDaisy/src/hid/midi.h ****     UartHandler         uart_;
 110:../libDaisy/src/hid/midi.h ****     uint8_t*            rx_buffer;
 111:../libDaisy/src/hid/midi.h ****     size_t              rx_buffer_size;
 112:../libDaisy/src/hid/midi.h ****     void*               parse_context_;
 113:../libDaisy/src/hid/midi.h ****     MidiRxParseCallback parse_callback_;
 114:../libDaisy/src/hid/midi.h **** 
 115:../libDaisy/src/hid/midi.h ****     /** Static callback for Uart MIDI that occurs when
 116:../libDaisy/src/hid/midi.h ****          *  new data is available from the peripheral.
 117:../libDaisy/src/hid/midi.h ****          *  The new data is transferred from the peripheral to the
 118:../libDaisy/src/hid/midi.h ****          *  MIDI instance's byte FIFO that feeds the MIDI parser.
 119:../libDaisy/src/hid/midi.h ****          *
 120:../libDaisy/src/hid/midi.h ****          *  TODO: Handle UartHandler errors better/at all.
 121:../libDaisy/src/hid/midi.h ****          *  (If there is a UART error, there's not really any recovery
 122:../libDaisy/src/hid/midi.h ****          *  option at the moment)
 123:../libDaisy/src/hid/midi.h ****          */
 124:../libDaisy/src/hid/midi.h ****     static void rxCallback(uint8_t*            data,
 125:../libDaisy/src/hid/midi.h ****                            size_t              size,
 126:../libDaisy/src/hid/midi.h ****                            void*               context,
 127:../libDaisy/src/hid/midi.h ****                            UartHandler::Result res)
 128:../libDaisy/src/hid/midi.h ****     {
 129:../libDaisy/src/hid/midi.h ****         /** Read context as transport type */
 130:../libDaisy/src/hid/midi.h ****         MidiUartTransport* transport
 131:../libDaisy/src/hid/midi.h ****             = reinterpret_cast<MidiUartTransport*>(context);
 132:../libDaisy/src/hid/midi.h ****         if(res == UartHandler::Result::OK)
 133:../libDaisy/src/hid/midi.h ****         {
 134:../libDaisy/src/hid/midi.h ****             if(transport->parse_callback_)
 135:../libDaisy/src/hid/midi.h ****             {
 136:../libDaisy/src/hid/midi.h ****                 transport->parse_callback_(
 137:../libDaisy/src/hid/midi.h ****                     data, size, transport->parse_context_);
 138:../libDaisy/src/hid/midi.h ****             }
 139:../libDaisy/src/hid/midi.h ****         }
 140:../libDaisy/src/hid/midi.h ****     }
 141:../libDaisy/src/hid/midi.h **** };
 142:../libDaisy/src/hid/midi.h **** 
 143:../libDaisy/src/hid/midi.h **** /**
 144:../libDaisy/src/hid/midi.h ****     @brief Simple MIDI Handler \n
 145:../libDaisy/src/hid/midi.h ****     Parses bytes from an input into valid MidiEvents. \n
 146:../libDaisy/src/hid/midi.h ****     The MidiEvents fill a FIFO queue that the user can pop messages from.
 147:../libDaisy/src/hid/midi.h ****     @author shensley
 148:../libDaisy/src/hid/midi.h ****     @date March 2020
 149:../libDaisy/src/hid/midi.h ****     @ingroup midi
 150:../libDaisy/src/hid/midi.h **** */
 151:../libDaisy/src/hid/midi.h **** template <typename Transport>
 152:../libDaisy/src/hid/midi.h **** class MidiHandler
 153:../libDaisy/src/hid/midi.h **** {
 154:../libDaisy/src/hid/midi.h ****   public:
ARM GAS  /var/folders/6_/psd2b8g56p7696hhrr4ztjs00000gn/T//ccF5R8G2.s 			page 5


 155:../libDaisy/src/hid/midi.h ****     MidiHandler() {}
 156:../libDaisy/src/hid/midi.h ****     ~MidiHandler() {}
  40              		.loc 3 156 5 view .LVU1
  41              	.LBB252:
  42              	.LBI252:
  43              		.file 4 "../libDaisy/src/util/FIFO.h"
   1:../libDaisy/src/util/FIFO.h **** #pragma once
   2:../libDaisy/src/util/FIFO.h **** 
   3:../libDaisy/src/util/FIFO.h **** #include <stdint.h>
   4:../libDaisy/src/util/FIFO.h **** #include <stddef.h>
   5:../libDaisy/src/util/FIFO.h **** #include <initializer_list>
   6:../libDaisy/src/util/FIFO.h **** 
   7:../libDaisy/src/util/FIFO.h **** namespace daisy
   8:../libDaisy/src/util/FIFO.h **** {
   9:../libDaisy/src/util/FIFO.h **** /** Capacity-independent base class for FIFO. Use FIFO instead. */
  10:../libDaisy/src/util/FIFO.h **** template <typename T>
  11:../libDaisy/src/util/FIFO.h **** class FIFOBase
  12:../libDaisy/src/util/FIFO.h **** {
  13:../libDaisy/src/util/FIFO.h ****   protected:
  14:../libDaisy/src/util/FIFO.h ****     FIFOBase(T* buffer, size_t bufferSize)
  15:../libDaisy/src/util/FIFO.h ****     : buffer_(buffer), bufferSize_(bufferSize), bufferIn_(0), bufferOut_(0)
  16:../libDaisy/src/util/FIFO.h ****     {
  17:../libDaisy/src/util/FIFO.h ****     }
  18:../libDaisy/src/util/FIFO.h **** 
  19:../libDaisy/src/util/FIFO.h ****     FIFOBase(T* buffer, size_t bufferSize, std::initializer_list<T> valuesToAdd)
  20:../libDaisy/src/util/FIFO.h ****     : buffer_(buffer), bufferSize_(bufferSize), bufferIn_(0), bufferOut_(0)
  21:../libDaisy/src/util/FIFO.h ****     {
  22:../libDaisy/src/util/FIFO.h ****         PushBack(valuesToAdd);
  23:../libDaisy/src/util/FIFO.h ****     }
  24:../libDaisy/src/util/FIFO.h **** 
  25:../libDaisy/src/util/FIFO.h ****   public:
  26:../libDaisy/src/util/FIFO.h ****     /** Copies all elements from another FIFO */
  27:../libDaisy/src/util/FIFO.h ****     FIFOBase<T>& operator=(const FIFOBase<T>& other)
  28:../libDaisy/src/util/FIFO.h ****     {
  29:../libDaisy/src/util/FIFO.h ****         bufferIn_ = bufferOut_ = 0;
  30:../libDaisy/src/util/FIFO.h ****         if(!other.IsEmpty())
  31:../libDaisy/src/util/FIFO.h ****         {
  32:../libDaisy/src/util/FIFO.h ****             int readPtr = other.bufferOut_;
  33:../libDaisy/src/util/FIFO.h ****             while((readPtr != other.bufferIn_) && (bufferIn_ < bufferSize_))
  34:../libDaisy/src/util/FIFO.h ****             {
  35:../libDaisy/src/util/FIFO.h ****                 buffer_[bufferIn_++] = other.buffer_[readPtr++];
  36:../libDaisy/src/util/FIFO.h ****                 if(readPtr >= other.bufferSize_)
  37:../libDaisy/src/util/FIFO.h ****                     readPtr -= other.bufferSize_;
  38:../libDaisy/src/util/FIFO.h ****             }
  39:../libDaisy/src/util/FIFO.h ****         }
  40:../libDaisy/src/util/FIFO.h ****         return *this;
  41:../libDaisy/src/util/FIFO.h ****     }
  42:../libDaisy/src/util/FIFO.h ****     ~FIFOBase() {}
  43:../libDaisy/src/util/FIFO.h **** 
  44:../libDaisy/src/util/FIFO.h ****     /** Removes all elements from the FIFO */
  45:../libDaisy/src/util/FIFO.h ****     void Clear() { bufferIn_ = bufferOut_ = 0; }
  46:../libDaisy/src/util/FIFO.h **** 
  47:../libDaisy/src/util/FIFO.h ****     /** Adds an element to the back of the buffer, returning true on
  48:../libDaisy/src/util/FIFO.h ****         success */
  49:../libDaisy/src/util/FIFO.h ****     bool PushBack(const T& elementToAdd)
  50:../libDaisy/src/util/FIFO.h ****     {
  51:../libDaisy/src/util/FIFO.h ****         if(!IsFull())
ARM GAS  /var/folders/6_/psd2b8g56p7696hhrr4ztjs00000gn/T//ccF5R8G2.s 			page 6


  52:../libDaisy/src/util/FIFO.h ****         {
  53:../libDaisy/src/util/FIFO.h ****             buffer_[bufferIn_++] = elementToAdd;
  54:../libDaisy/src/util/FIFO.h ****             if(bufferIn_ >= bufferSize_)
  55:../libDaisy/src/util/FIFO.h ****                 bufferIn_ -= bufferSize_;
  56:../libDaisy/src/util/FIFO.h ****             return true;
  57:../libDaisy/src/util/FIFO.h ****         }
  58:../libDaisy/src/util/FIFO.h ****         return false;
  59:../libDaisy/src/util/FIFO.h ****     }
  60:../libDaisy/src/util/FIFO.h **** 
  61:../libDaisy/src/util/FIFO.h ****     /** Adds multiple elements and returns the number of elements that were added */
  62:../libDaisy/src/util/FIFO.h ****     int PushBack(std::initializer_list<T> valuesToAdd)
  63:../libDaisy/src/util/FIFO.h ****     {
  64:../libDaisy/src/util/FIFO.h ****         int numAdded = 0;
  65:../libDaisy/src/util/FIFO.h ****         for(const auto& v : valuesToAdd)
  66:../libDaisy/src/util/FIFO.h ****         {
  67:../libDaisy/src/util/FIFO.h ****             if(IsFull())
  68:../libDaisy/src/util/FIFO.h ****                 return numAdded;
  69:../libDaisy/src/util/FIFO.h **** 
  70:../libDaisy/src/util/FIFO.h ****             PushBack(v);
  71:../libDaisy/src/util/FIFO.h ****             numAdded++;
  72:../libDaisy/src/util/FIFO.h ****         }
  73:../libDaisy/src/util/FIFO.h ****         return numAdded;
  74:../libDaisy/src/util/FIFO.h ****     }
  75:../libDaisy/src/util/FIFO.h **** 
  76:../libDaisy/src/util/FIFO.h ****     /** returns a reference to the last element */
  77:../libDaisy/src/util/FIFO.h ****     T& Back()
  78:../libDaisy/src/util/FIFO.h ****     {
  79:../libDaisy/src/util/FIFO.h ****         if(IsEmpty())
  80:../libDaisy/src/util/FIFO.h ****             // invalid, but better not pass a temporary T() object as a reference...
  81:../libDaisy/src/util/FIFO.h ****             return buffer_[0];
  82:../libDaisy/src/util/FIFO.h ****         int idx = bufferIn_ - 1;
  83:../libDaisy/src/util/FIFO.h ****         if(idx < 0)
  84:../libDaisy/src/util/FIFO.h ****             idx += bufferSize_;
  85:../libDaisy/src/util/FIFO.h ****         return buffer_[idx];
  86:../libDaisy/src/util/FIFO.h ****     }
  87:../libDaisy/src/util/FIFO.h **** 
  88:../libDaisy/src/util/FIFO.h ****     /** returns a reference to the last element */
  89:../libDaisy/src/util/FIFO.h ****     const T& Back() const
  90:../libDaisy/src/util/FIFO.h ****     {
  91:../libDaisy/src/util/FIFO.h ****         if(IsEmpty())
  92:../libDaisy/src/util/FIFO.h ****             // invalid, but better not pass a temporary T() object as a reference...
  93:../libDaisy/src/util/FIFO.h ****             return buffer_[0];
  94:../libDaisy/src/util/FIFO.h ****         int idx = bufferIn_ - 1;
  95:../libDaisy/src/util/FIFO.h ****         if(idx < 0)
  96:../libDaisy/src/util/FIFO.h ****             idx += bufferSize_;
  97:../libDaisy/src/util/FIFO.h ****         return buffer_[idx];
  98:../libDaisy/src/util/FIFO.h ****     }
  99:../libDaisy/src/util/FIFO.h **** 
 100:../libDaisy/src/util/FIFO.h ****     /** removes and returns an element from the front of the buffer */
 101:../libDaisy/src/util/FIFO.h ****     T PopFront()
 102:../libDaisy/src/util/FIFO.h ****     {
 103:../libDaisy/src/util/FIFO.h ****         if(IsEmpty())
 104:../libDaisy/src/util/FIFO.h ****             return T();
 105:../libDaisy/src/util/FIFO.h ****         else
 106:../libDaisy/src/util/FIFO.h ****         {
 107:../libDaisy/src/util/FIFO.h ****             const auto result = buffer_[bufferOut_];
 108:../libDaisy/src/util/FIFO.h ****             bufferOut_++;
ARM GAS  /var/folders/6_/psd2b8g56p7696hhrr4ztjs00000gn/T//ccF5R8G2.s 			page 7


 109:../libDaisy/src/util/FIFO.h ****             if(bufferOut_ >= bufferSize_)
 110:../libDaisy/src/util/FIFO.h ****                 bufferOut_ -= bufferSize_;
 111:../libDaisy/src/util/FIFO.h ****             return result;
 112:../libDaisy/src/util/FIFO.h ****         }
 113:../libDaisy/src/util/FIFO.h ****     }
 114:../libDaisy/src/util/FIFO.h **** 
 115:../libDaisy/src/util/FIFO.h ****     /** returns a copy of the first element */
 116:../libDaisy/src/util/FIFO.h ****     T& Front()
 117:../libDaisy/src/util/FIFO.h ****     {
 118:../libDaisy/src/util/FIFO.h ****         if(IsEmpty())
 119:../libDaisy/src/util/FIFO.h ****             // invalid, but better not pass a temporary T() object as a reference...
 120:../libDaisy/src/util/FIFO.h ****             return buffer_[0];
 121:../libDaisy/src/util/FIFO.h ****         return buffer_[bufferOut_];
 122:../libDaisy/src/util/FIFO.h ****     }
 123:../libDaisy/src/util/FIFO.h **** 
 124:../libDaisy/src/util/FIFO.h ****     /** returns a reference to the first element */
 125:../libDaisy/src/util/FIFO.h ****     const T& Front() const
 126:../libDaisy/src/util/FIFO.h ****     {
 127:../libDaisy/src/util/FIFO.h ****         if(IsEmpty())
 128:../libDaisy/src/util/FIFO.h ****             // invalid, but better not pass a temporary T() object as a reference...
 129:../libDaisy/src/util/FIFO.h ****             return buffer_[0];
 130:../libDaisy/src/util/FIFO.h ****         return buffer_[bufferOut_];
 131:../libDaisy/src/util/FIFO.h ****     }
 132:../libDaisy/src/util/FIFO.h **** 
 133:../libDaisy/src/util/FIFO.h ****     /** Returns true if the buffer contains an element equal to the provided value */
 134:../libDaisy/src/util/FIFO.h ****     bool Contains(const T& element)
 135:../libDaisy/src/util/FIFO.h ****     {
 136:../libDaisy/src/util/FIFO.h ****         auto idx = bufferOut_;
 137:../libDaisy/src/util/FIFO.h ****         while(idx != bufferIn_)
 138:../libDaisy/src/util/FIFO.h ****         {
 139:../libDaisy/src/util/FIFO.h ****             if(buffer_[idx] == element)
 140:../libDaisy/src/util/FIFO.h ****                 return true;
 141:../libDaisy/src/util/FIFO.h ****             idx++;
 142:../libDaisy/src/util/FIFO.h ****             if(idx >= bufferSize_)
 143:../libDaisy/src/util/FIFO.h ****                 idx -= bufferSize_;
 144:../libDaisy/src/util/FIFO.h ****         }
 145:../libDaisy/src/util/FIFO.h ****         return false;
 146:../libDaisy/src/util/FIFO.h ****     }
 147:../libDaisy/src/util/FIFO.h **** 
 148:../libDaisy/src/util/FIFO.h ****     /** Returns the number of elements in the buffer that are equal to the provided value */
 149:../libDaisy/src/util/FIFO.h ****     size_t CountEqualTo(const T& element)
 150:../libDaisy/src/util/FIFO.h ****     {
 151:../libDaisy/src/util/FIFO.h ****         size_t result = 0;
 152:../libDaisy/src/util/FIFO.h ****         size_t idx    = bufferOut_;
 153:../libDaisy/src/util/FIFO.h ****         while(idx != bufferIn_)
 154:../libDaisy/src/util/FIFO.h ****         {
 155:../libDaisy/src/util/FIFO.h ****             if(buffer_[idx] == element)
 156:../libDaisy/src/util/FIFO.h ****                 result++;
 157:../libDaisy/src/util/FIFO.h ****             idx++;
 158:../libDaisy/src/util/FIFO.h ****             if(idx >= bufferSize_)
 159:../libDaisy/src/util/FIFO.h ****                 idx -= bufferSize_;
 160:../libDaisy/src/util/FIFO.h ****         }
 161:../libDaisy/src/util/FIFO.h ****         return result;
 162:../libDaisy/src/util/FIFO.h ****     }
 163:../libDaisy/src/util/FIFO.h **** 
 164:../libDaisy/src/util/FIFO.h ****     /** returns true, if the buffer is empty */
 165:../libDaisy/src/util/FIFO.h ****     bool IsEmpty() const { return bufferIn_ == bufferOut_; }
ARM GAS  /var/folders/6_/psd2b8g56p7696hhrr4ztjs00000gn/T//ccF5R8G2.s 			page 8


 166:../libDaisy/src/util/FIFO.h **** 
 167:../libDaisy/src/util/FIFO.h ****     /** returns true, if the buffer is Full */
 168:../libDaisy/src/util/FIFO.h ****     bool IsFull() const { return GetNumElements() == bufferSize_ - 1; }
 169:../libDaisy/src/util/FIFO.h **** 
 170:../libDaisy/src/util/FIFO.h ****     /** returns the number of elements in the buffer */
 171:../libDaisy/src/util/FIFO.h ****     size_t GetNumElements() const
 172:../libDaisy/src/util/FIFO.h ****     {
 173:../libDaisy/src/util/FIFO.h ****         int32_t numElements = bufferIn_ - bufferOut_;
 174:../libDaisy/src/util/FIFO.h ****         if(numElements < 0)
 175:../libDaisy/src/util/FIFO.h ****             numElements += bufferSize_;
 176:../libDaisy/src/util/FIFO.h ****         return size_t(numElements);
 177:../libDaisy/src/util/FIFO.h ****     }
 178:../libDaisy/src/util/FIFO.h **** 
 179:../libDaisy/src/util/FIFO.h ****     /** inserts an element "idx" positions behind the first element and returns true if successful 
 180:../libDaisy/src/util/FIFO.h ****     bool Insert(size_t idx, const T& element)
 181:../libDaisy/src/util/FIFO.h ****     {
 182:../libDaisy/src/util/FIFO.h ****         if(idx > GetNumElements())
 183:../libDaisy/src/util/FIFO.h ****             return false;
 184:../libDaisy/src/util/FIFO.h ****         if(IsFull())
 185:../libDaisy/src/util/FIFO.h ****             return false;
 186:../libDaisy/src/util/FIFO.h ****         if(idx == GetNumElements())
 187:../libDaisy/src/util/FIFO.h ****         {
 188:../libDaisy/src/util/FIFO.h ****             PushBack(element);
 189:../libDaisy/src/util/FIFO.h ****             return true;
 190:../libDaisy/src/util/FIFO.h ****         }
 191:../libDaisy/src/util/FIFO.h ****         // copy last element
 192:../libDaisy/src/util/FIFO.h ****         PushBack(Back());
 193:../libDaisy/src/util/FIFO.h ****         // move remaining elements: n => n+1
 194:../libDaisy/src/util/FIFO.h ****         for(int i = GetNumElements() - 2; i > int(idx); i--)
 195:../libDaisy/src/util/FIFO.h ****             (*this)[i] = (*this)[i - 1];
 196:../libDaisy/src/util/FIFO.h ****         // insert element
 197:../libDaisy/src/util/FIFO.h ****         (*this)[idx] = element;
 198:../libDaisy/src/util/FIFO.h ****         return true;
 199:../libDaisy/src/util/FIFO.h ****     }
 200:../libDaisy/src/util/FIFO.h **** 
 201:../libDaisy/src/util/FIFO.h ****     /** removes the element "idx" positions behind the first element 
 202:../libDaisy/src/util/FIFO.h ****      *  and returns true if successful */
 203:../libDaisy/src/util/FIFO.h ****     bool Remove(size_t idx)
 204:../libDaisy/src/util/FIFO.h ****     {
 205:../libDaisy/src/util/FIFO.h ****         if(idx >= GetNumElements())
 206:../libDaisy/src/util/FIFO.h ****             return false;
 207:../libDaisy/src/util/FIFO.h **** 
 208:../libDaisy/src/util/FIFO.h ****         size_t index = bufferOut_ + idx;
 209:../libDaisy/src/util/FIFO.h ****         if(index >= bufferSize_)
 210:../libDaisy/src/util/FIFO.h ****             index -= bufferSize_;
 211:../libDaisy/src/util/FIFO.h ****         size_t nextIndex = index + 1;
 212:../libDaisy/src/util/FIFO.h ****         if(nextIndex >= bufferSize_)
 213:../libDaisy/src/util/FIFO.h ****             nextIndex -= bufferSize_;
 214:../libDaisy/src/util/FIFO.h **** 
 215:../libDaisy/src/util/FIFO.h ****         while(nextIndex != bufferIn_)
 216:../libDaisy/src/util/FIFO.h ****         {
 217:../libDaisy/src/util/FIFO.h ****             buffer_[index] = buffer_[nextIndex];
 218:../libDaisy/src/util/FIFO.h ****             index++;
 219:../libDaisy/src/util/FIFO.h ****             nextIndex++;
 220:../libDaisy/src/util/FIFO.h ****             if(index >= bufferSize_)
 221:../libDaisy/src/util/FIFO.h ****                 index -= bufferSize_;
 222:../libDaisy/src/util/FIFO.h ****             if(nextIndex >= bufferSize_)
ARM GAS  /var/folders/6_/psd2b8g56p7696hhrr4ztjs00000gn/T//ccF5R8G2.s 			page 9


 223:../libDaisy/src/util/FIFO.h ****                 nextIndex -= bufferSize_;
 224:../libDaisy/src/util/FIFO.h ****         }
 225:../libDaisy/src/util/FIFO.h **** 
 226:../libDaisy/src/util/FIFO.h ****         int32_t nextBufferIn = int32_t(bufferIn_) - 1;
 227:../libDaisy/src/util/FIFO.h ****         if(nextBufferIn < 0)
 228:../libDaisy/src/util/FIFO.h ****             nextBufferIn += bufferSize_;
 229:../libDaisy/src/util/FIFO.h ****         bufferIn_ = size_t(nextBufferIn);
 230:../libDaisy/src/util/FIFO.h **** 
 231:../libDaisy/src/util/FIFO.h ****         return true;
 232:../libDaisy/src/util/FIFO.h ****     }
 233:../libDaisy/src/util/FIFO.h **** 
 234:../libDaisy/src/util/FIFO.h ****     /** removes all elements from the buffer for which
 235:../libDaisy/src/util/FIFO.h ****         (buffer(index) == element) returns true and returns the number of
 236:../libDaisy/src/util/FIFO.h ****         elements that were removed. */
 237:../libDaisy/src/util/FIFO.h ****     size_t RemoveAllEqualTo(const T& element)
 238:../libDaisy/src/util/FIFO.h ****     {
 239:../libDaisy/src/util/FIFO.h ****         size_t numRemoved = 0;
 240:../libDaisy/src/util/FIFO.h ****         int    idx        = GetNumElements() - 1;
 241:../libDaisy/src/util/FIFO.h ****         while(idx >= 0)
 242:../libDaisy/src/util/FIFO.h ****         {
 243:../libDaisy/src/util/FIFO.h ****             if((*this)[idx] == element)
 244:../libDaisy/src/util/FIFO.h ****             {
 245:../libDaisy/src/util/FIFO.h ****                 numRemoved++;
 246:../libDaisy/src/util/FIFO.h ****                 Remove(idx);
 247:../libDaisy/src/util/FIFO.h ****                 // was that the last element?
 248:../libDaisy/src/util/FIFO.h ****                 if(idx == int(GetNumElements()) - 1)
 249:../libDaisy/src/util/FIFO.h ****                     idx--;
 250:../libDaisy/src/util/FIFO.h ****             }
 251:../libDaisy/src/util/FIFO.h ****             else
 252:../libDaisy/src/util/FIFO.h ****                 idx--;
 253:../libDaisy/src/util/FIFO.h ****         }
 254:../libDaisy/src/util/FIFO.h ****         return numRemoved;
 255:../libDaisy/src/util/FIFO.h ****     }
 256:../libDaisy/src/util/FIFO.h **** 
 257:../libDaisy/src/util/FIFO.h ****     /** returns the element "idx" positions behind the first element */
 258:../libDaisy/src/util/FIFO.h ****     T& operator[](size_t idx)
 259:../libDaisy/src/util/FIFO.h ****     {
 260:../libDaisy/src/util/FIFO.h ****         if(idx >= GetNumElements())
 261:../libDaisy/src/util/FIFO.h ****             // invalid, but better not pass a temporary T() object as a reference...
 262:../libDaisy/src/util/FIFO.h ****             return buffer_[0];
 263:../libDaisy/src/util/FIFO.h **** 
 264:../libDaisy/src/util/FIFO.h ****         size_t index = bufferOut_ + idx;
 265:../libDaisy/src/util/FIFO.h ****         if(index >= bufferSize_)
 266:../libDaisy/src/util/FIFO.h ****             index -= bufferSize_;
 267:../libDaisy/src/util/FIFO.h ****         return buffer_[index];
 268:../libDaisy/src/util/FIFO.h ****     }
 269:../libDaisy/src/util/FIFO.h **** 
 270:../libDaisy/src/util/FIFO.h ****     /** returns the element "idx" positions behind the first element */
 271:../libDaisy/src/util/FIFO.h ****     const T& operator[](size_t idx) const
 272:../libDaisy/src/util/FIFO.h ****     {
 273:../libDaisy/src/util/FIFO.h ****         if(idx >= GetNumElements())
 274:../libDaisy/src/util/FIFO.h ****             // invalid, but better not pass a temporary T() object as a reference...
 275:../libDaisy/src/util/FIFO.h ****             return buffer_[0];
 276:../libDaisy/src/util/FIFO.h **** 
 277:../libDaisy/src/util/FIFO.h ****         size_t index = bufferOut_ + idx;
 278:../libDaisy/src/util/FIFO.h ****         if(index >= bufferSize_)
 279:../libDaisy/src/util/FIFO.h ****             index -= bufferSize_;
ARM GAS  /var/folders/6_/psd2b8g56p7696hhrr4ztjs00000gn/T//ccF5R8G2.s 			page 10


 280:../libDaisy/src/util/FIFO.h ****         return buffer_[index];
 281:../libDaisy/src/util/FIFO.h ****     }
 282:../libDaisy/src/util/FIFO.h **** 
 283:../libDaisy/src/util/FIFO.h ****     /** returns the total capacity */
 284:../libDaisy/src/util/FIFO.h ****     size_t GetCapacity() const { return bufferSize_ - 1; }
 285:../libDaisy/src/util/FIFO.h **** 
 286:../libDaisy/src/util/FIFO.h ****   private:
 287:../libDaisy/src/util/FIFO.h ****     FIFOBase(const FIFOBase<T>&) {} // non copyable
 288:../libDaisy/src/util/FIFO.h **** 
 289:../libDaisy/src/util/FIFO.h ****   private:
 290:../libDaisy/src/util/FIFO.h ****     T*           buffer_;
 291:../libDaisy/src/util/FIFO.h ****     const size_t bufferSize_;
 292:../libDaisy/src/util/FIFO.h ****     size_t       bufferIn_;
 293:../libDaisy/src/util/FIFO.h ****     size_t       bufferOut_;
 294:../libDaisy/src/util/FIFO.h **** };
 295:../libDaisy/src/util/FIFO.h **** 
 296:../libDaisy/src/util/FIFO.h **** /** A simple FIFO ring buffer with a fixed size. */
 297:../libDaisy/src/util/FIFO.h **** template <typename T, size_t capacity>
 298:../libDaisy/src/util/FIFO.h **** class FIFO : public FIFOBase<T>
  44              		.loc 4 298 7 view .LVU2
  45              	.LBB253:
  46              	.LBI253:
  42:../libDaisy/src/util/FIFO.h **** 
  47              		.loc 4 42 5 view .LVU3
  42:../libDaisy/src/util/FIFO.h **** 
  48              		.loc 4 42 5 is_stmt 0 view .LVU4
  49              	.LBE253:
  50              	.LBE252:
  51              	.LBB254:
  52              	.LBI254:
  53              		.file 5 "../libDaisy/src/hid/midi_parser.h"
   1:../libDaisy/src/hid/midi_parser.h **** #pragma once
   2:../libDaisy/src/hid/midi_parser.h **** #ifndef DSY_MIDI_PARSER_H
   3:../libDaisy/src/hid/midi_parser.h **** #define DSY_MIDI_PARSER_H
   4:../libDaisy/src/hid/midi_parser.h **** 
   5:../libDaisy/src/hid/midi_parser.h **** #include <stdint.h>
   6:../libDaisy/src/hid/midi_parser.h **** #include <stdlib.h>
   7:../libDaisy/src/hid/midi_parser.h **** #include "hid/MidiEvent.h"
   8:../libDaisy/src/hid/midi_parser.h **** 
   9:../libDaisy/src/hid/midi_parser.h **** namespace daisy
  10:../libDaisy/src/hid/midi_parser.h **** {
  11:../libDaisy/src/hid/midi_parser.h **** /** @brief   Utility class for parsing raw byte streams into MIDI messages
  12:../libDaisy/src/hid/midi_parser.h ****  *  @details Implemented as a state machine designed to parse one byte at a time
  13:../libDaisy/src/hid/midi_parser.h ****  *  @ingroup midi
  14:../libDaisy/src/hid/midi_parser.h ****  */
  15:../libDaisy/src/hid/midi_parser.h **** class MidiParser
  16:../libDaisy/src/hid/midi_parser.h **** {
  17:../libDaisy/src/hid/midi_parser.h ****   public:
  18:../libDaisy/src/hid/midi_parser.h ****     MidiParser(){};
  19:../libDaisy/src/hid/midi_parser.h ****     ~MidiParser() {}
  54              		.loc 5 19 5 is_stmt 1 view .LVU5
  55              		.loc 5 19 5 is_stmt 0 view .LVU6
  56              	.LBE254:
  57              	.LBB255:
  58              	.LBI255:
  32:../libDaisy/src/hid/midi.h **** 
  59              		.loc 3 32 5 is_stmt 1 view .LVU7
ARM GAS  /var/folders/6_/psd2b8g56p7696hhrr4ztjs00000gn/T//ccF5R8G2.s 			page 11


  32:../libDaisy/src/hid/midi.h **** 
  60              		.loc 3 32 5 is_stmt 0 view .LVU8
  61              	.LBE255:
  62              	.LBE251:
  63              	.LBB256:
  64              	.LBI256:
  65              		.file 6 "../libDaisy/src/hid/rgb_led.h"
   1:../libDaisy/src/hid/rgb_led.h **** #pragma once
   2:../libDaisy/src/hid/rgb_led.h **** #ifndef DSY_RGB_LED_H
   3:../libDaisy/src/hid/rgb_led.h **** #define DSY_RGB_LED_H
   4:../libDaisy/src/hid/rgb_led.h **** #include "hid/led.h"
   5:../libDaisy/src/hid/rgb_led.h **** #include "util/color.h"
   6:../libDaisy/src/hid/rgb_led.h **** 
   7:../libDaisy/src/hid/rgb_led.h **** namespace daisy
   8:../libDaisy/src/hid/rgb_led.h **** {
   9:../libDaisy/src/hid/rgb_led.h **** /** @addtogroup feedback
  10:../libDaisy/src/hid/rgb_led.h ****     @{
  11:../libDaisy/src/hid/rgb_led.h **** */
  12:../libDaisy/src/hid/rgb_led.h **** 
  13:../libDaisy/src/hid/rgb_led.h **** /** 3x LEDs configured as an RGB for ease of use. */
  14:../libDaisy/src/hid/rgb_led.h **** class RgbLed
  15:../libDaisy/src/hid/rgb_led.h **** {
  16:../libDaisy/src/hid/rgb_led.h ****   public:
  17:../libDaisy/src/hid/rgb_led.h ****     RgbLed() {}
  18:../libDaisy/src/hid/rgb_led.h ****     ~RgbLed() {}
  66              		.loc 6 18 5 is_stmt 1 view .LVU9
  67              	.LBB257:
  68              	.LBI257:
  69              		.file 7 "../libDaisy/src/hid/led.h"
   1:../libDaisy/src/hid/led.h **** 
   2:../libDaisy/src/hid/led.h **** #pragma once
   3:../libDaisy/src/hid/led.h **** #ifndef DSY_LED_H
   4:../libDaisy/src/hid/led.h **** #define DSY_LED_H
   5:../libDaisy/src/hid/led.h **** #include "daisy_core.h"
   6:../libDaisy/src/hid/led.h **** #include "per/gpio.h"
   7:../libDaisy/src/hid/led.h **** 
   8:../libDaisy/src/hid/led.h **** /* TODO - Get this set up to work with the dev_leddriver stuff as well
   9:../libDaisy/src/hid/led.h **** - Setup Hardware PWM for pins that have it
  10:../libDaisy/src/hid/led.h **** */
  11:../libDaisy/src/hid/led.h **** 
  12:../libDaisy/src/hid/led.h **** namespace daisy
  13:../libDaisy/src/hid/led.h **** {
  14:../libDaisy/src/hid/led.h **** /**
  15:../libDaisy/src/hid/led.h ****     @brief LED Class providing simple Software PWM ability, etc \n 
  16:../libDaisy/src/hid/led.h ****     Eventually this will work with hardware PWM, and external LED Driver devices as well.
  17:../libDaisy/src/hid/led.h ****     @author shensley
  18:../libDaisy/src/hid/led.h ****     @date March 2020
  19:../libDaisy/src/hid/led.h ****     @ingroup feedback
  20:../libDaisy/src/hid/led.h **** */
  21:../libDaisy/src/hid/led.h **** class Led
  22:../libDaisy/src/hid/led.h **** {
  23:../libDaisy/src/hid/led.h ****   public:
  24:../libDaisy/src/hid/led.h ****     Led() {}
  25:../libDaisy/src/hid/led.h ****     ~Led() {}
  70              		.loc 7 25 5 view .LVU10
  71              		.loc 7 25 5 is_stmt 0 view .LVU11
  72              	.LBE257:
ARM GAS  /var/folders/6_/psd2b8g56p7696hhrr4ztjs00000gn/T//ccF5R8G2.s 			page 12


  73              	.LBB258:
  74              	.LBI258:
  75              		.loc 7 25 5 is_stmt 1 view .LVU12
  76              		.loc 7 25 5 is_stmt 0 view .LVU13
  77              	.LBE258:
  78              	.LBB259:
  79              	.LBI259:
  80              		.loc 7 25 5 is_stmt 1 view .LVU14
  81              		.loc 7 25 5 is_stmt 0 view .LVU15
  82              	.LBE259:
  83              	.LBE256:
  84              	.LBB260:
  85              	.LBI260:
  86              		.loc 6 18 5 is_stmt 1 view .LVU16
  87              	.LBB261:
  88              	.LBI261:
  89              		.loc 7 25 5 view .LVU17
  90              		.loc 7 25 5 is_stmt 0 view .LVU18
  91              	.LBE261:
  92              	.LBB262:
  93              	.LBI262:
  94              		.loc 7 25 5 is_stmt 1 view .LVU19
  95              		.loc 7 25 5 is_stmt 0 view .LVU20
  96              	.LBE262:
  97              	.LBB263:
  98              	.LBI263:
  99              		.loc 7 25 5 is_stmt 1 view .LVU21
 100              		.loc 7 25 5 is_stmt 0 view .LVU22
 101              	.LBE263:
 102              	.LBE260:
 103              	.LBB264:
 104              	.LBI264:
 105              		.file 8 "../libDaisy/src/hid/switch.h"
   1:../libDaisy/src/hid/switch.h **** #pragma once
   2:../libDaisy/src/hid/switch.h **** #ifndef DSY_SWITCH_H
   3:../libDaisy/src/hid/switch.h **** #define DSY_SWITCH_H
   4:../libDaisy/src/hid/switch.h **** #include "daisy_core.h"
   5:../libDaisy/src/hid/switch.h **** #include "per/gpio.h"
   6:../libDaisy/src/hid/switch.h **** #include "sys/system.h"
   7:../libDaisy/src/hid/switch.h **** 
   8:../libDaisy/src/hid/switch.h **** namespace daisy
   9:../libDaisy/src/hid/switch.h **** {
  10:../libDaisy/src/hid/switch.h **** /** 
  11:../libDaisy/src/hid/switch.h ****     Generic Class for handling momentary/latching switches \n 
  12:../libDaisy/src/hid/switch.h ****     Inspired/influenced by Mutable Instruments (pichenettes) Switch classes
  13:../libDaisy/src/hid/switch.h ****     @author Stephen Hensley
  14:../libDaisy/src/hid/switch.h ****     @date December 2019
  15:../libDaisy/src/hid/switch.h ****     @ingroup controls
  16:../libDaisy/src/hid/switch.h **** */
  17:../libDaisy/src/hid/switch.h **** class Switch
  18:../libDaisy/src/hid/switch.h **** {
  19:../libDaisy/src/hid/switch.h ****   public:
  20:../libDaisy/src/hid/switch.h ****     /** Specifies the expected behavior of the switch */
  21:../libDaisy/src/hid/switch.h ****     enum Type
  22:../libDaisy/src/hid/switch.h ****     {
  23:../libDaisy/src/hid/switch.h ****         TYPE_TOGGLE,    /**< & */
  24:../libDaisy/src/hid/switch.h ****         TYPE_MOMENTARY, /**< & */
ARM GAS  /var/folders/6_/psd2b8g56p7696hhrr4ztjs00000gn/T//ccF5R8G2.s 			page 13


  25:../libDaisy/src/hid/switch.h ****     };
  26:../libDaisy/src/hid/switch.h ****     /** Specifies whether the pressed is HIGH or LOW. */
  27:../libDaisy/src/hid/switch.h ****     enum Polarity
  28:../libDaisy/src/hid/switch.h ****     {
  29:../libDaisy/src/hid/switch.h ****         POLARITY_NORMAL,   /**< & */
  30:../libDaisy/src/hid/switch.h ****         POLARITY_INVERTED, /**< & */
  31:../libDaisy/src/hid/switch.h ****     };
  32:../libDaisy/src/hid/switch.h **** 
  33:../libDaisy/src/hid/switch.h ****     /** Specifies whether to use built-in Pull Up/Down resistors to hold button at a given state wh
  34:../libDaisy/src/hid/switch.h ****     enum Pull
  35:../libDaisy/src/hid/switch.h ****     {
  36:../libDaisy/src/hid/switch.h ****         PULL_UP,   /**< & */
  37:../libDaisy/src/hid/switch.h ****         PULL_DOWN, /**< & */
  38:../libDaisy/src/hid/switch.h ****         PULL_NONE, /**< & */
  39:../libDaisy/src/hid/switch.h ****     };
  40:../libDaisy/src/hid/switch.h **** 
  41:../libDaisy/src/hid/switch.h ****     Switch() {}
  42:../libDaisy/src/hid/switch.h ****     ~Switch() {}
 106              		.loc 8 42 5 is_stmt 1 view .LVU23
 107              		.loc 8 42 5 is_stmt 0 view .LVU24
 108              	.LBE264:
 109              	.LBB265:
 110              	.LBI265:
 111              		.loc 8 42 5 is_stmt 1 view .LVU25
 112              		.loc 8 42 5 is_stmt 0 view .LVU26
 113              	.LBE265:
 114              	.LBB266:
 115              	.LBI266:
 116              		.file 9 "../libDaisy/src/hid/ctrl.h"
   1:../libDaisy/src/hid/ctrl.h **** #pragma once
   2:../libDaisy/src/hid/ctrl.h **** #ifndef DSY_KNOB_H
   3:../libDaisy/src/hid/ctrl.h **** #define DSY_KNOB_H /**< & */
   4:../libDaisy/src/hid/ctrl.h **** #include <stdint.h>
   5:../libDaisy/src/hid/ctrl.h **** 
   6:../libDaisy/src/hid/ctrl.h **** #ifdef __cplusplus
   7:../libDaisy/src/hid/ctrl.h **** namespace daisy
   8:../libDaisy/src/hid/ctrl.h **** {
   9:../libDaisy/src/hid/ctrl.h **** /**
  10:../libDaisy/src/hid/ctrl.h ****     @brief Hardware Interface for control inputs \n 
  11:../libDaisy/src/hid/ctrl.h ****     Primarily designed for ADC input controls such as \n 
  12:../libDaisy/src/hid/ctrl.h ****     potentiometers, and control voltage. \n 
  13:../libDaisy/src/hid/ctrl.h ****     @author Stephen Hensley
  14:../libDaisy/src/hid/ctrl.h ****     @date November 2019
  15:../libDaisy/src/hid/ctrl.h ****     @ingroup controls
  16:../libDaisy/src/hid/ctrl.h **** */
  17:../libDaisy/src/hid/ctrl.h **** class AnalogControl
  18:../libDaisy/src/hid/ctrl.h **** {
  19:../libDaisy/src/hid/ctrl.h ****   public:
  20:../libDaisy/src/hid/ctrl.h ****     /** Constructor */
  21:../libDaisy/src/hid/ctrl.h ****     AnalogControl() {}
  22:../libDaisy/src/hid/ctrl.h ****     /** destructor */
  23:../libDaisy/src/hid/ctrl.h ****     ~AnalogControl() {}
 117              		.loc 9 23 5 is_stmt 1 view .LVU27
 118              		.loc 9 23 5 is_stmt 0 view .LVU28
 119              	.LBE266:
 120              	.LBB267:
 121              	.LBI267:
ARM GAS  /var/folders/6_/psd2b8g56p7696hhrr4ztjs00000gn/T//ccF5R8G2.s 			page 14


 122              		.loc 9 23 5 is_stmt 1 view .LVU29
 123              		.loc 9 23 5 is_stmt 0 view .LVU30
 124              	.LBE267:
 125              	.LBB268:
 126              	.LBI268:
 127              		.file 10 "../libDaisy/src/hid/encoder.h"
   1:../libDaisy/src/hid/encoder.h **** #pragma once
   2:../libDaisy/src/hid/encoder.h **** #ifndef DSY_ENCODER_H
   3:../libDaisy/src/hid/encoder.h **** #define DSY_ENCODER_H
   4:../libDaisy/src/hid/encoder.h **** #include "daisy_core.h"
   5:../libDaisy/src/hid/encoder.h **** #include "per/gpio.h"
   6:../libDaisy/src/hid/encoder.h **** #include "hid/switch.h"
   7:../libDaisy/src/hid/encoder.h **** 
   8:../libDaisy/src/hid/encoder.h **** namespace daisy
   9:../libDaisy/src/hid/encoder.h **** {
  10:../libDaisy/src/hid/encoder.h **** /** 
  11:../libDaisy/src/hid/encoder.h ****     @brief Generic Class for handling Quadrature Encoders \n 
  12:../libDaisy/src/hid/encoder.h ****     Inspired/influenced by Mutable Instruments (pichenettes) Encoder classes
  13:../libDaisy/src/hid/encoder.h ****     @author Stephen Hensley
  14:../libDaisy/src/hid/encoder.h ****     @date December 2019
  15:../libDaisy/src/hid/encoder.h ****     @ingroup controls
  16:../libDaisy/src/hid/encoder.h **** */
  17:../libDaisy/src/hid/encoder.h **** class Encoder
  18:../libDaisy/src/hid/encoder.h **** {
  19:../libDaisy/src/hid/encoder.h ****   public:
  20:../libDaisy/src/hid/encoder.h ****     Encoder() {}
  21:../libDaisy/src/hid/encoder.h ****     ~Encoder() {}
 128              		.loc 10 21 5 is_stmt 1 view .LVU31
 129              	.LBB269:
 130              	.LBI269:
 131              		.loc 8 42 5 view .LVU32
 132              		.loc 8 42 5 is_stmt 0 view .LVU33
 133              	.LBE269:
 134              	.LBE268:
 135              	.LBB270:
 136              	.LBI270:
 137              		.file 11 "../libDaisy/src/daisy_seed.h"
   1:../libDaisy/src/daisy_seed.h **** #pragma once
   2:../libDaisy/src/daisy_seed.h **** #ifndef DSY_SEED_H
   3:../libDaisy/src/daisy_seed.h **** #define DSY_SEED_H
   4:../libDaisy/src/daisy_seed.h **** 
   5:../libDaisy/src/daisy_seed.h **** #include "daisy.h"
   6:../libDaisy/src/daisy_seed.h **** 
   7:../libDaisy/src/daisy_seed.h **** //Uncomment this out if you're still using the rev2 hardware
   8:../libDaisy/src/daisy_seed.h **** //#define SEED_REV2
   9:../libDaisy/src/daisy_seed.h **** 
  10:../libDaisy/src/daisy_seed.h **** namespace daisy
  11:../libDaisy/src/daisy_seed.h **** {
  12:../libDaisy/src/daisy_seed.h **** /**
  13:../libDaisy/src/daisy_seed.h ****    @brief This is the higher-level interface for the Daisy board. \n 
  14:../libDaisy/src/daisy_seed.h ****     All basic peripheral configuration/initialization is setup here. \n
  15:../libDaisy/src/daisy_seed.h **** 
  16:../libDaisy/src/daisy_seed.h ****    @ingroup boards
  17:../libDaisy/src/daisy_seed.h **** */
  18:../libDaisy/src/daisy_seed.h **** class DaisySeed
  19:../libDaisy/src/daisy_seed.h **** {
  20:../libDaisy/src/daisy_seed.h ****   public:
ARM GAS  /var/folders/6_/psd2b8g56p7696hhrr4ztjs00000gn/T//ccF5R8G2.s 			page 15


  21:../libDaisy/src/daisy_seed.h ****     DaisySeed() {}
  22:../libDaisy/src/daisy_seed.h ****     ~DaisySeed() {}
 138              		.loc 11 22 5 is_stmt 1 view .LVU34
 139              	.LBB271:
 140              	.LBI271:
 141              		.file 12 "../libDaisy/src/sys/system.h"
   1:../libDaisy/src/sys/system.h **** #ifndef DSY_SYSTEM_H
   2:../libDaisy/src/sys/system.h **** #define DSY_SYSTEM_H
   3:../libDaisy/src/sys/system.h **** 
   4:../libDaisy/src/sys/system.h **** #ifndef UNIT_TEST // for unit tests, a dummy implementation is provided below
   5:../libDaisy/src/sys/system.h **** 
   6:../libDaisy/src/sys/system.h **** #include <cstdint>
   7:../libDaisy/src/sys/system.h **** #include "per/tim.h"
   8:../libDaisy/src/sys/system.h **** 
   9:../libDaisy/src/sys/system.h **** namespace daisy
  10:../libDaisy/src/sys/system.h **** {
  11:../libDaisy/src/sys/system.h **** /** A handle for interacting with the Core System.
  12:../libDaisy/src/sys/system.h ****  ** This includes the Clock tree, MPU, global DMA initialization,
  13:../libDaisy/src/sys/system.h ****  ** cache handling, and any other necessary global initiailzation
  14:../libDaisy/src/sys/system.h ****  **
  15:../libDaisy/src/sys/system.h ****  ** @author shensley
  16:../libDaisy/src/sys/system.h ****  ** @ingroup system
  17:../libDaisy/src/sys/system.h ****  */
  18:../libDaisy/src/sys/system.h **** class System
  19:../libDaisy/src/sys/system.h **** {
  20:../libDaisy/src/sys/system.h ****   public:
  21:../libDaisy/src/sys/system.h ****     /** Contains settings for initializing the System */
  22:../libDaisy/src/sys/system.h ****     struct Config
  23:../libDaisy/src/sys/system.h ****     {
  24:../libDaisy/src/sys/system.h ****         /** Specifies the system clock frequency that feeds APB/AHB clocks, etc. */
  25:../libDaisy/src/sys/system.h ****         enum class SysClkFreq
  26:../libDaisy/src/sys/system.h ****         {
  27:../libDaisy/src/sys/system.h ****             FREQ_400MHZ,
  28:../libDaisy/src/sys/system.h ****             FREQ_480MHZ,
  29:../libDaisy/src/sys/system.h ****         };
  30:../libDaisy/src/sys/system.h **** 
  31:../libDaisy/src/sys/system.h ****         /** Method to call on the struct to set to defaults
  32:../libDaisy/src/sys/system.h ****          ** CPU Freq set to 400MHz
  33:../libDaisy/src/sys/system.h ****          ** Cache Enabled
  34:../libDaisy/src/sys/system.h ****          ** */
  35:../libDaisy/src/sys/system.h ****         void Defaults()
  36:../libDaisy/src/sys/system.h ****         {
  37:../libDaisy/src/sys/system.h ****             cpu_freq    = SysClkFreq::FREQ_400MHZ;
  38:../libDaisy/src/sys/system.h ****             use_dcache  = true;
  39:../libDaisy/src/sys/system.h ****             use_icache  = true;
  40:../libDaisy/src/sys/system.h ****             skip_clocks = false;
  41:../libDaisy/src/sys/system.h ****         }
  42:../libDaisy/src/sys/system.h **** 
  43:../libDaisy/src/sys/system.h ****         /** Method to call on the struct to set to boost mode:
  44:../libDaisy/src/sys/system.h ****          ** CPU Freq set to 480MHz
  45:../libDaisy/src/sys/system.h ****          ** Cache Enabled
  46:../libDaisy/src/sys/system.h ****          ** */
  47:../libDaisy/src/sys/system.h ****         void Boost()
  48:../libDaisy/src/sys/system.h ****         {
  49:../libDaisy/src/sys/system.h ****             cpu_freq    = SysClkFreq::FREQ_480MHZ;
  50:../libDaisy/src/sys/system.h ****             use_dcache  = true;
  51:../libDaisy/src/sys/system.h ****             use_icache  = true;
ARM GAS  /var/folders/6_/psd2b8g56p7696hhrr4ztjs00000gn/T//ccF5R8G2.s 			page 16


  52:../libDaisy/src/sys/system.h ****             skip_clocks = false;
  53:../libDaisy/src/sys/system.h ****         }
  54:../libDaisy/src/sys/system.h **** 
  55:../libDaisy/src/sys/system.h ****         SysClkFreq cpu_freq;
  56:../libDaisy/src/sys/system.h ****         bool       use_dcache;
  57:../libDaisy/src/sys/system.h ****         bool       use_icache;
  58:../libDaisy/src/sys/system.h ****         bool       skip_clocks;
  59:../libDaisy/src/sys/system.h ****     };
  60:../libDaisy/src/sys/system.h **** 
  61:../libDaisy/src/sys/system.h ****     /** Describes the different regions of memory available to the Daisy */
  62:../libDaisy/src/sys/system.h ****     enum MemoryRegion
  63:../libDaisy/src/sys/system.h ****     {
  64:../libDaisy/src/sys/system.h ****         INTERNAL_FLASH = 0,
  65:../libDaisy/src/sys/system.h ****         ITCMRAM,
  66:../libDaisy/src/sys/system.h ****         DTCMRAM,
  67:../libDaisy/src/sys/system.h ****         SRAM_D1,
  68:../libDaisy/src/sys/system.h ****         SRAM_D2,
  69:../libDaisy/src/sys/system.h ****         SRAM_D3,
  70:../libDaisy/src/sys/system.h ****         SDRAM,
  71:../libDaisy/src/sys/system.h ****         QSPI,
  72:../libDaisy/src/sys/system.h ****         INVALID_ADDRESS,
  73:../libDaisy/src/sys/system.h ****     };
  74:../libDaisy/src/sys/system.h **** 
  75:../libDaisy/src/sys/system.h ****     /** Bootloader struct for controlling bootloading parameters */
  76:../libDaisy/src/sys/system.h ****     struct BootInfo
  77:../libDaisy/src/sys/system.h ****     {
  78:../libDaisy/src/sys/system.h ****         enum class Type : uint32_t
  79:../libDaisy/src/sys/system.h ****         {
  80:../libDaisy/src/sys/system.h ****             INVALID      = 0x00000000,
  81:../libDaisy/src/sys/system.h ****             JUMP         = 0xDEADBEEF,
  82:../libDaisy/src/sys/system.h ****             SKIP_TIMEOUT = 0x5AFEB007,
  83:../libDaisy/src/sys/system.h ****             INF_TIMEOUT  = 0xB0074EFA,
  84:../libDaisy/src/sys/system.h ****         } status;
  85:../libDaisy/src/sys/system.h ****         uint32_t data;
  86:../libDaisy/src/sys/system.h ****         enum class Version : uint32_t
  87:../libDaisy/src/sys/system.h ****         {
  88:../libDaisy/src/sys/system.h ****             LT_v6_0 = 0, // Less than v6.0
  89:../libDaisy/src/sys/system.h ****             NONE,        // No bootloader present
  90:../libDaisy/src/sys/system.h ****             v6_0,        // v6.0
  91:../libDaisy/src/sys/system.h ****             v6_1,        // v6.1 or greater
  92:../libDaisy/src/sys/system.h ****             LAST
  93:../libDaisy/src/sys/system.h ****         } version;
  94:../libDaisy/src/sys/system.h ****     };
  95:../libDaisy/src/sys/system.h **** 
  96:../libDaisy/src/sys/system.h ****     System() {}
  97:../libDaisy/src/sys/system.h ****     ~System() {}
 142              		.loc 12 97 5 view .LVU35
 143              		.loc 12 97 5 is_stmt 0 view .LVU36
 144              	.LBE271:
 145              	.LBB272:
 146              	.LBI272:
 147              		.file 13 "../libDaisy/src/hid/usb.h"
   1:../libDaisy/src/hid/usb.h **** #pragma once
   2:../libDaisy/src/hid/usb.h **** #ifndef DSY_HID_USB_H
   3:../libDaisy/src/hid/usb.h **** #define DSY_HID_USB_H
   4:../libDaisy/src/hid/usb.h **** #include <stdint.h>
   5:../libDaisy/src/hid/usb.h **** #include <stdlib.h>
ARM GAS  /var/folders/6_/psd2b8g56p7696hhrr4ztjs00000gn/T//ccF5R8G2.s 			page 17


   6:../libDaisy/src/hid/usb.h **** 
   7:../libDaisy/src/hid/usb.h **** namespace daisy
   8:../libDaisy/src/hid/usb.h **** /** @addtogroup human_interface
   9:../libDaisy/src/hid/usb.h ****     @{
  10:../libDaisy/src/hid/usb.h **** */
  11:../libDaisy/src/hid/usb.h **** 
  12:../libDaisy/src/hid/usb.h **** {
  13:../libDaisy/src/hid/usb.h **** /** 
  14:../libDaisy/src/hid/usb.h ****     @brief Interface for initializing and using the USB Peripherals on the daisy
  15:../libDaisy/src/hid/usb.h ****     @author Stephen Hensley
  16:../libDaisy/src/hid/usb.h ****     @date December 2019
  17:../libDaisy/src/hid/usb.h **** */
  18:../libDaisy/src/hid/usb.h **** class UsbHandle
  19:../libDaisy/src/hid/usb.h **** {
  20:../libDaisy/src/hid/usb.h ****   public:
  21:../libDaisy/src/hid/usb.h ****     /** Return values for USBHandle Functions */
  22:../libDaisy/src/hid/usb.h ****     enum class Result
  23:../libDaisy/src/hid/usb.h ****     {
  24:../libDaisy/src/hid/usb.h ****         OK,
  25:../libDaisy/src/hid/usb.h ****         ERR,
  26:../libDaisy/src/hid/usb.h ****     };
  27:../libDaisy/src/hid/usb.h **** 
  28:../libDaisy/src/hid/usb.h ****     /** Specified which of the two USB Peripherals to initialize. */
  29:../libDaisy/src/hid/usb.h ****     enum UsbPeriph
  30:../libDaisy/src/hid/usb.h ****     {
  31:../libDaisy/src/hid/usb.h ****         FS_INTERNAL, /**< Internal pin */
  32:../libDaisy/src/hid/usb.h ****         FS_EXTERNAL, /**< FS External D+ pin is Pin 38 (GPIO32). FS External D- pin is Pin 37 (GPIO
  33:../libDaisy/src/hid/usb.h ****         FS_BOTH,     /**< Both */
  34:../libDaisy/src/hid/usb.h ****     };
  35:../libDaisy/src/hid/usb.h **** 
  36:../libDaisy/src/hid/usb.h **** 
  37:../libDaisy/src/hid/usb.h ****     /** Function called upon reception of a buffer */
  38:../libDaisy/src/hid/usb.h ****     typedef void (*ReceiveCallback)(uint8_t* buff, uint32_t* len);
  39:../libDaisy/src/hid/usb.h **** 
  40:../libDaisy/src/hid/usb.h ****     UsbHandle() {}
  41:../libDaisy/src/hid/usb.h **** 
  42:../libDaisy/src/hid/usb.h ****     ~UsbHandle() {}
 148              		.loc 13 42 5 is_stmt 1 view .LVU37
 149              		.loc 13 42 5 is_stmt 0 view .LVU38
 150              	.LBE272:
 151              	.LBB273:
 152              	.LBI273:
 153              		.file 14 "../libDaisy/src/per/adc.h"
   1:../libDaisy/src/per/adc.h **** #pragma once
   2:../libDaisy/src/per/adc.h **** #ifndef DSY_ADC_H
   3:../libDaisy/src/per/adc.h **** #define DSY_ADC_H /**< Macro */
   4:../libDaisy/src/per/adc.h **** #include <stdint.h>
   5:../libDaisy/src/per/adc.h **** #include <stdlib.h>
   6:../libDaisy/src/per/adc.h **** #include "daisy_core.h"
   7:../libDaisy/src/per/adc.h **** #include "per/gpio.h"
   8:../libDaisy/src/per/adc.h **** 
   9:../libDaisy/src/per/adc.h **** #define DSY_ADC_MAX_CHANNELS 16 /**< Maximum number of ADC channels */
  10:../libDaisy/src/per/adc.h **** 
  11:../libDaisy/src/per/adc.h **** namespace daisy
  12:../libDaisy/src/per/adc.h **** {
  13:../libDaisy/src/per/adc.h **** /** @addtogroup per_analog
  14:../libDaisy/src/per/adc.h ****     @{
ARM GAS  /var/folders/6_/psd2b8g56p7696hhrr4ztjs00000gn/T//ccF5R8G2.s 			page 18


  15:../libDaisy/src/per/adc.h **** */
  16:../libDaisy/src/per/adc.h **** 
  17:../libDaisy/src/per/adc.h **** /* While there may not be many configuration options here,
  18:../libDaisy/src/per/adc.h **** using a struct like this allows us to add more configuration
  19:../libDaisy/src/per/adc.h **** later without breaking existing functionality.
  20:../libDaisy/src/per/adc.h **** */
  21:../libDaisy/src/per/adc.h **** 
  22:../libDaisy/src/per/adc.h **** /** @brief   Configuration Structure for an ADC Channel 
  23:../libDaisy/src/per/adc.h ****  *  @details This can be used to configure a a single input, 
  24:../libDaisy/src/per/adc.h ****  *           or a multiplexed input, allowing up to 8 inputs on 
  25:../libDaisy/src/per/adc.h ****  *           one channel.
  26:../libDaisy/src/per/adc.h ****  *  @note    Sharing data lines to multiple muxes _is_ possible, but
  27:../libDaisy/src/per/adc.h ****  *           each channel sharing data lines must be set to the maximum
  28:../libDaisy/src/per/adc.h ****  *           number of channels, even if some multiplexers have fewer
  29:../libDaisy/src/per/adc.h ****  *           inputs connected.
  30:../libDaisy/src/per/adc.h **** */
  31:../libDaisy/src/per/adc.h **** struct AdcChannelConfig
  32:../libDaisy/src/per/adc.h **** {
  33:../libDaisy/src/per/adc.h ****     /** Which pin to use for multiplexing */
  34:../libDaisy/src/per/adc.h ****     enum MuxPin
  35:../libDaisy/src/per/adc.h ****     {
  36:../libDaisy/src/per/adc.h ****         MUX_SEL_0,    /**< & */
  37:../libDaisy/src/per/adc.h ****         MUX_SEL_1,    /**< & */
  38:../libDaisy/src/per/adc.h ****         MUX_SEL_2,    /**< & */
  39:../libDaisy/src/per/adc.h ****         MUX_SEL_LAST, /**< & */
  40:../libDaisy/src/per/adc.h ****     };
  41:../libDaisy/src/per/adc.h **** 
  42:../libDaisy/src/per/adc.h ****     /** \brief per channel conversion speed added to fixed time based on bitdepth, etc. */
  43:../libDaisy/src/per/adc.h ****     enum ConversionSpeed
  44:../libDaisy/src/per/adc.h ****     {
  45:../libDaisy/src/per/adc.h ****         SPEED_1CYCLES_5,
  46:../libDaisy/src/per/adc.h ****         SPEED_2CYCLES_5,
  47:../libDaisy/src/per/adc.h ****         SPEED_8CYCLES_5,
  48:../libDaisy/src/per/adc.h ****         SPEED_16CYCLES_5,
  49:../libDaisy/src/per/adc.h ****         SPEED_32CYCLES_5,
  50:../libDaisy/src/per/adc.h ****         SPEED_64CYCLES_5,
  51:../libDaisy/src/per/adc.h ****         SPEED_387CYCLES_5,
  52:../libDaisy/src/per/adc.h ****         SPEED_810CYCLES_5,
  53:../libDaisy/src/per/adc.h ****     };
  54:../libDaisy/src/per/adc.h **** 
  55:../libDaisy/src/per/adc.h ****     /** Initializes a single ADC pin as an ADC. 
  56:../libDaisy/src/per/adc.h ****     \param pin Pin to init.
  57:../libDaisy/src/per/adc.h ****     \param speed conversion speed for this pin defaults to 8.5 cycles
  58:../libDaisy/src/per/adc.h ****      */
  59:../libDaisy/src/per/adc.h ****     void InitSingle(dsy_gpio_pin pin, ConversionSpeed speed = SPEED_8CYCLES_5);
  60:../libDaisy/src/per/adc.h **** 
  61:../libDaisy/src/per/adc.h ****     /** 
  62:../libDaisy/src/per/adc.h ****     Initializes a single ADC pin as a Multiplexed ADC.
  63:../libDaisy/src/per/adc.h ****     Requires a CD405X Multiplexer connected to the pin.
  64:../libDaisy/src/per/adc.h ****     You only need to supply the mux pins that are required,
  65:../libDaisy/src/per/adc.h ****     e.g. a 4052 mux would only require mux_0 and mux_1.
  66:../libDaisy/src/per/adc.h ****     Internal Callbacks handle the pin addressing.
  67:../libDaisy/src/per/adc.h ****     \param adc_pin &
  68:../libDaisy/src/per/adc.h ****     \param mux_channels must be 1-8
  69:../libDaisy/src/per/adc.h ****     \param mux_0 First mux pin
  70:../libDaisy/src/per/adc.h ****     \param mux_1 Second mux pin
  71:../libDaisy/src/per/adc.h ****     \param mux_2 Third mux pin
ARM GAS  /var/folders/6_/psd2b8g56p7696hhrr4ztjs00000gn/T//ccF5R8G2.s 			page 19


  72:../libDaisy/src/per/adc.h ****     \param speed conversion speed for this pin defaults to 8.5 cycles
  73:../libDaisy/src/per/adc.h ****     */
  74:../libDaisy/src/per/adc.h ****     void InitMux(dsy_gpio_pin    adc_pin,
  75:../libDaisy/src/per/adc.h ****                  size_t          mux_channels,
  76:../libDaisy/src/per/adc.h ****                  dsy_gpio_pin    mux_0,
  77:../libDaisy/src/per/adc.h ****                  dsy_gpio_pin    mux_1 = {DSY_GPIOX, 0},
  78:../libDaisy/src/per/adc.h ****                  dsy_gpio_pin    mux_2 = {DSY_GPIOX, 0},
  79:../libDaisy/src/per/adc.h ****                  ConversionSpeed speed = SPEED_8CYCLES_5);
  80:../libDaisy/src/per/adc.h **** 
  81:../libDaisy/src/per/adc.h ****     dsy_gpio        pin_;                   /**< & */
  82:../libDaisy/src/per/adc.h ****     dsy_gpio        mux_pin_[MUX_SEL_LAST]; /**< & */
  83:../libDaisy/src/per/adc.h ****     uint8_t         mux_channels_;          /**< & */
  84:../libDaisy/src/per/adc.h ****     ConversionSpeed speed_;
  85:../libDaisy/src/per/adc.h **** };
  86:../libDaisy/src/per/adc.h **** 
  87:../libDaisy/src/per/adc.h **** /**
  88:../libDaisy/src/per/adc.h ****    @brief Handler for analog to digital conversion
  89:../libDaisy/src/per/adc.h **** */
  90:../libDaisy/src/per/adc.h **** class AdcHandle
  91:../libDaisy/src/per/adc.h **** {
  92:../libDaisy/src/per/adc.h ****   public:
  93:../libDaisy/src/per/adc.h ****     /** Supported oversampling amounts */
  94:../libDaisy/src/per/adc.h ****     enum OverSampling
  95:../libDaisy/src/per/adc.h ****     {
  96:../libDaisy/src/per/adc.h ****         OVS_NONE, /**< & */
  97:../libDaisy/src/per/adc.h ****         OVS_4,    /**< & */
  98:../libDaisy/src/per/adc.h ****         OVS_8,    /**< & */
  99:../libDaisy/src/per/adc.h ****         OVS_16,   /**< & */
 100:../libDaisy/src/per/adc.h ****         OVS_32,   /**< & */
 101:../libDaisy/src/per/adc.h ****         OVS_64,   /**< & */
 102:../libDaisy/src/per/adc.h ****         OVS_128,  /**< & */
 103:../libDaisy/src/per/adc.h ****         OVS_256,  /**< & */
 104:../libDaisy/src/per/adc.h ****         OVS_512,  /**< & */
 105:../libDaisy/src/per/adc.h ****         OVS_1024, /**< & */
 106:../libDaisy/src/per/adc.h ****         OVS_LAST, /**< & */
 107:../libDaisy/src/per/adc.h ****     };
 108:../libDaisy/src/per/adc.h **** 
 109:../libDaisy/src/per/adc.h ****     AdcHandle() {}
 110:../libDaisy/src/per/adc.h ****     ~AdcHandle() {}
 154              		.loc 14 110 5 is_stmt 1 view .LVU39
 155              		.loc 14 110 5 is_stmt 0 view .LVU40
 156              	.LBE273:
 157              	.LBB274:
 158              	.LBI274:
 159              		.file 15 "../libDaisy/src/hid/audio.h"
   1:../libDaisy/src/hid/audio.h **** #ifndef DSY_AUDIO_H
   2:../libDaisy/src/hid/audio.h **** #define DSY_AUDIO_H /**< & */
   3:../libDaisy/src/hid/audio.h **** 
   4:../libDaisy/src/hid/audio.h **** #include "per/sai.h"
   5:../libDaisy/src/hid/audio.h **** 
   6:../libDaisy/src/hid/audio.h **** namespace daisy
   7:../libDaisy/src/hid/audio.h **** {
   8:../libDaisy/src/hid/audio.h **** /** @brief Audio Engine Handle
   9:../libDaisy/src/hid/audio.h ****  *  @ingroup audio 
  10:../libDaisy/src/hid/audio.h ****  *  @details This class allows for higher level access to an audio engine.
  11:../libDaisy/src/hid/audio.h ****  *           If you're using a SOM like the DaisySeed or DaisyPatchSM (or any 
  12:../libDaisy/src/hid/audio.h ****  *            board that includes one of those objects) then the intialization
ARM GAS  /var/folders/6_/psd2b8g56p7696hhrr4ztjs00000gn/T//ccF5R8G2.s 			page 20


  13:../libDaisy/src/hid/audio.h ****  *            is already taken  care of.
  14:../libDaisy/src/hid/audio.h ****  *           If you're setting up your own custom hardware, or need to make changes
  15:../libDaisy/src/hid/audio.h ****  *           you will have to take the following steps:
  16:../libDaisy/src/hid/audio.h ****  *             1. Create and Initialize an SaiHandle or two depending on your requirements
  17:../libDaisy/src/hid/audio.h ****  *             2. Initialize the Audio Handle with the desired settings and the Initialized SaiHand
  18:../libDaisy/src/hid/audio.h ****  *             3. If the connected codec requires special configuration or initialization, do so
  19:../libDaisy/src/hid/audio.h ****  *             4. Write a callback method using either the AudioCallback or the InterleavingAudioCa
  20:../libDaisy/src/hid/audio.h ****  *             5. Start the Audio using one of the StartAudio function
  21:../libDaisy/src/hid/audio.h ****  */
  22:../libDaisy/src/hid/audio.h **** class AudioHandle
  23:../libDaisy/src/hid/audio.h **** {
  24:../libDaisy/src/hid/audio.h ****   public:
  25:../libDaisy/src/hid/audio.h ****     /** Manually configurable details about the Audio Engine */
  26:../libDaisy/src/hid/audio.h ****     /** TODO: Figure out how to get samplerate in here. */
  27:../libDaisy/src/hid/audio.h ****     struct Config
  28:../libDaisy/src/hid/audio.h ****     {
  29:../libDaisy/src/hid/audio.h ****         /** number of samples to process per callback */
  30:../libDaisy/src/hid/audio.h ****         size_t blocksize;
  31:../libDaisy/src/hid/audio.h **** 
  32:../libDaisy/src/hid/audio.h ****         /**< Sample rate of audio */
  33:../libDaisy/src/hid/audio.h ****         SaiHandle::Config::SampleRate samplerate;
  34:../libDaisy/src/hid/audio.h **** 
  35:../libDaisy/src/hid/audio.h ****         /** factor for adjustment before and after callback for hardware that may have extra headro
  36:../libDaisy/src/hid/audio.h ****         float postgain;
  37:../libDaisy/src/hid/audio.h **** 
  38:../libDaisy/src/hid/audio.h ****         /** factor for additional one-sided compensation to audio path for hardware that may
  39:../libDaisy/src/hid/audio.h ****          *  have unequal input/output ranges
  40:../libDaisy/src/hid/audio.h ****          */
  41:../libDaisy/src/hid/audio.h ****         float output_compensation;
  42:../libDaisy/src/hid/audio.h **** 
  43:../libDaisy/src/hid/audio.h ****         /** Sets default values for config struct */
  44:../libDaisy/src/hid/audio.h ****         Config()
  45:../libDaisy/src/hid/audio.h ****         : blocksize(48),
  46:../libDaisy/src/hid/audio.h ****           samplerate(SaiHandle::Config::SampleRate::SAI_48KHZ),
  47:../libDaisy/src/hid/audio.h ****           postgain(1.f),
  48:../libDaisy/src/hid/audio.h ****           output_compensation(1.f)
  49:../libDaisy/src/hid/audio.h ****         {
  50:../libDaisy/src/hid/audio.h ****         }
  51:../libDaisy/src/hid/audio.h ****     };
  52:../libDaisy/src/hid/audio.h **** 
  53:../libDaisy/src/hid/audio.h ****     enum class Result
  54:../libDaisy/src/hid/audio.h ****     {
  55:../libDaisy/src/hid/audio.h ****         OK,
  56:../libDaisy/src/hid/audio.h ****         ERR,
  57:../libDaisy/src/hid/audio.h ****     };
  58:../libDaisy/src/hid/audio.h **** 
  59:../libDaisy/src/hid/audio.h ****     /** Non-Interleaving input buffer
  60:../libDaisy/src/hid/audio.h ****      * Buffer arranged by float[chn][sample] 
  61:../libDaisy/src/hid/audio.h ****      * const so that the user can't modify the input
  62:../libDaisy/src/hid/audio.h ****      */
  63:../libDaisy/src/hid/audio.h ****     typedef const float* const* InputBuffer;
  64:../libDaisy/src/hid/audio.h **** 
  65:../libDaisy/src/hid/audio.h ****     /** Non-Interleaving output buffer
  66:../libDaisy/src/hid/audio.h ****      * Arranged by float[chn][sample] 
  67:../libDaisy/src/hid/audio.h ****      */
  68:../libDaisy/src/hid/audio.h ****     typedef float** OutputBuffer;
  69:../libDaisy/src/hid/audio.h **** 
ARM GAS  /var/folders/6_/psd2b8g56p7696hhrr4ztjs00000gn/T//ccF5R8G2.s 			page 21


  70:../libDaisy/src/hid/audio.h ****     /** Type for a Non-Interleaving audio callback 
  71:../libDaisy/src/hid/audio.h ****      * Non-Interleaving audio callbacks in daisy will be of this type
  72:../libDaisy/src/hid/audio.h ****      */
  73:../libDaisy/src/hid/audio.h ****     typedef void (*AudioCallback)(InputBuffer  in,
  74:../libDaisy/src/hid/audio.h ****                                   OutputBuffer out,
  75:../libDaisy/src/hid/audio.h ****                                   size_t       size);
  76:../libDaisy/src/hid/audio.h **** 
  77:../libDaisy/src/hid/audio.h ****     /** Interleaving Input buffer
  78:../libDaisy/src/hid/audio.h ****      ** audio is prepared as { L0, R0, L1, R1, . . . LN, RN }]
  79:../libDaisy/src/hid/audio.h ****      ** this is const, as the user shouldn't modify it
  80:../libDaisy/src/hid/audio.h ****     */
  81:../libDaisy/src/hid/audio.h ****     typedef const float* InterleavingInputBuffer;
  82:../libDaisy/src/hid/audio.h **** 
  83:../libDaisy/src/hid/audio.h ****     /** Interleaving Output buffer 
  84:../libDaisy/src/hid/audio.h ****      ** audio is prepared as { L0, R0, L1, R1, . . . LN, RN }
  85:../libDaisy/src/hid/audio.h ****     */
  86:../libDaisy/src/hid/audio.h ****     typedef float* InterleavingOutputBuffer;
  87:../libDaisy/src/hid/audio.h **** 
  88:../libDaisy/src/hid/audio.h ****     /** Interleaving Audio Callback 
  89:../libDaisy/src/hid/audio.h ****      * Interleaving audio callbacks in daisy must be of this type
  90:../libDaisy/src/hid/audio.h ****      */
  91:../libDaisy/src/hid/audio.h ****     typedef void (*InterleavingAudioCallback)(InterleavingInputBuffer  in,
  92:../libDaisy/src/hid/audio.h ****                                               InterleavingOutputBuffer out,
  93:../libDaisy/src/hid/audio.h ****                                               size_t                   size);
  94:../libDaisy/src/hid/audio.h **** 
  95:../libDaisy/src/hid/audio.h ****     AudioHandle() : pimpl_(nullptr) {}
  96:../libDaisy/src/hid/audio.h ****     ~AudioHandle() {}
 160              		.loc 15 96 5 is_stmt 1 view .LVU41
 161              		.loc 15 96 5 is_stmt 0 view .LVU42
 162              	.LBE274:
 163              	.LBE270:
 164              	.LBE250:
 165              		.loc 2 36 18 view .LVU43
 166 0000 7047     		bx	lr
 167              		.cfi_endproc
 168              	.LFE2352:
 170              		.weak	_ZN5daisy8DaisyPodD1Ev
 171              		.thumb_set _ZN5daisy8DaisyPodD1Ev,_ZN5daisy8DaisyPodD2Ev
 172 0002 00BF     		.section	.text._Z13AudioCallBackPKPKfPPfj,"ax",%progbits
 173              		.align	1
 174              		.p2align 2,,3
 175              		.global	_Z13AudioCallBackPKPKfPPfj
 176              		.syntax unified
 177              		.thumb
 178              		.thumb_func
 180              	_Z13AudioCallBackPKPKfPPfj:
 181              	.LVL1:
 182              	.LFB4735:
   1:ReactivePedal.cpp **** #include "daisy_pod.h"
   2:ReactivePedal.cpp **** #include "daisysp.h"
   3:ReactivePedal.cpp **** #include "FeatureExtractor.h"
   4:ReactivePedal.cpp **** 
   5:ReactivePedal.cpp **** using namespace daisy;
   6:ReactivePedal.cpp **** using namespace daisysp;
   7:ReactivePedal.cpp **** using namespace std;
   8:ReactivePedal.cpp **** 
   9:ReactivePedal.cpp **** volatile bool newFrameReady = false;
ARM GAS  /var/folders/6_/psd2b8g56p7696hhrr4ztjs00000gn/T//ccF5R8G2.s 			page 22


  10:ReactivePedal.cpp **** AudioFeatures latestFeatures;
  11:ReactivePedal.cpp **** 
  12:ReactivePedal.cpp **** DaisyPod hw;
  13:ReactivePedal.cpp **** FeatureExtractor extractor;
  14:ReactivePedal.cpp **** AudioFeatures features;
  15:ReactivePedal.cpp **** 
  16:ReactivePedal.cpp **** void AudioCallBack(AudioHandle::InputBuffer in, AudioHandle::OutputBuffer out, size_t size)
  17:ReactivePedal.cpp **** {
 183              		.loc 1 17 1 is_stmt 1 view -0
 184              		.cfi_startproc
 185              		@ args = 0, pretend = 0, frame = 0
 186              		@ frame_needed = 0, uses_anonymous_args = 0
  18:ReactivePedal.cpp ****     for(size_t i = 0; i < size; i++)
 187              		.loc 1 18 5 view .LVU45
 188              	.LBB275:
 189              		.loc 1 18 25 discriminator 1 view .LVU46
 190 0000 AAB3     		cbz	r2, .L15
 191              	.LBE275:
  17:ReactivePedal.cpp ****     for(size_t i = 0; i < size; i++)
 192              		.loc 1 17 1 is_stmt 0 view .LVU47
 193 0002 2DE9F047 		push	{r4, r5, r6, r7, r8, r9, r10, lr}
 194              		.cfi_def_cfa_offset 32
 195              		.cfi_offset 4, -32
 196              		.cfi_offset 5, -28
 197              		.cfi_offset 6, -24
 198              		.cfi_offset 7, -20
 199              		.cfi_offset 8, -16
 200              		.cfi_offset 9, -12
 201              		.cfi_offset 10, -8
 202              		.cfi_offset 14, -4
 203 0006 0F46     		mov	r7, r1
 204 0008 8146     		mov	r9, r0
 205 000a 9046     		mov	r8, r2
 206              	.LBB279:
 207              		.loc 1 18 16 view .LVU48
 208 000c 0024     		movs	r4, #0
 209              	.LBE279:
  17:ReactivePedal.cpp ****     for(size_t i = 0; i < size; i++)
 210              		.loc 1 17 1 view .LVU49
 211 000e 2DED028B 		vpush.64	{d8}
 212              		.cfi_def_cfa_offset 40
 213              		.cfi_offset 80, -40
 214              		.cfi_offset 81, -36
 215              	.LVL2:
 216              	.L6:
 217              	.LBB280:
 218              	.LBB276:
  19:ReactivePedal.cpp ****     {
  20:ReactivePedal.cpp ****         float x = in[0][i];
 219              		.loc 1 20 9 is_stmt 1 view .LVU50
 220              		.loc 1 20 15 is_stmt 0 view .LVU51
 221 0012 D9F80030 		ldr	r3, [r9]
 222 0016 A600     		lsls	r6, r4, #2
  21:ReactivePedal.cpp **** 
  22:ReactivePedal.cpp ****         if(extractor.ProcessSample(x, features))
 223              		.loc 1 22 35 view .LVU52
 224 0018 1549     		ldr	r1, .L18
ARM GAS  /var/folders/6_/psd2b8g56p7696hhrr4ztjs00000gn/T//ccF5R8G2.s 			page 23


  23:ReactivePedal.cpp ****         {
  24:ReactivePedal.cpp ****             latestFeatures = features;
  25:ReactivePedal.cpp ****             newFrameReady = true;
 225              		.loc 1 25 27 view .LVU53
 226 001a 4FF0010A 		mov	r10, #1
  20:ReactivePedal.cpp **** 
 227              		.loc 1 20 15 view .LVU54
 228 001e 03EB8403 		add	r3, r3, r4, lsl #2
  22:ReactivePedal.cpp ****         {
 229              		.loc 1 22 35 view .LVU55
 230 0022 1448     		ldr	r0, .L18+4
 231              	.LBE276:
  18:ReactivePedal.cpp ****     {
 232              		.loc 1 18 5 discriminator 2 view .LVU56
 233 0024 0134     		adds	r4, r4, #1
 234              	.LVL3:
 235              	.LBB277:
 236              		.loc 1 25 27 view .LVU57
 237 0026 144D     		ldr	r5, .L18+8
  20:ReactivePedal.cpp **** 
 238              		.loc 1 20 15 view .LVU58
 239 0028 93ED008A 		vldr.32	s16, [r3]
 240              	.LVL4:
  22:ReactivePedal.cpp ****         {
 241              		.loc 1 22 9 is_stmt 1 view .LVU59
  22:ReactivePedal.cpp ****         {
 242              		.loc 1 22 35 is_stmt 0 view .LVU60
 243 002c B0EE480A 		vmov.f32	s0, s16
 244 0030 FFF7FEFF 		bl	_ZN16FeatureExtractor13ProcessSampleEfR13AudioFeatures
 245              	.LVL5:
  24:ReactivePedal.cpp ****             newFrameReady = true;
 246              		.loc 1 24 13 is_stmt 1 view .LVU61
  26:ReactivePedal.cpp ****         }
  27:ReactivePedal.cpp **** 
  28:ReactivePedal.cpp ****         out[0][i] = x;
 247              		.loc 1 28 9 view .LVU62
  24:ReactivePedal.cpp ****             newFrameReady = true;
 248              		.loc 1 24 28 is_stmt 0 view .LVU63
 249 0034 DFF838E0 		ldr	lr, .L18
 250 0038 DFF840C0 		ldr	ip, .L18+12
  22:ReactivePedal.cpp ****         {
 251              		.loc 1 22 9 discriminator 1 view .LVU64
 252 003c 48B1     		cbz	r0, .L5
  25:ReactivePedal.cpp ****         }
 253              		.loc 1 25 27 view .LVU65
 254 003e 85F800A0 		strb	r10, [r5]
  24:ReactivePedal.cpp ****             newFrameReady = true;
 255              		.loc 1 24 28 view .LVU66
 256 0042 BEE80F00 		ldmia	lr!, {r0, r1, r2, r3}
 257 0046 DEF80050 		ldr	r5, [lr]
 258 004a ACE80F00 		stmia	ip!, {r0, r1, r2, r3}
 259 004e CCF80050 		str	r5, [ip]
  25:ReactivePedal.cpp ****         }
 260              		.loc 1 25 13 is_stmt 1 view .LVU67
 261              	.L5:
 262              	.LBE277:
  18:ReactivePedal.cpp ****     {
ARM GAS  /var/folders/6_/psd2b8g56p7696hhrr4ztjs00000gn/T//ccF5R8G2.s 			page 24


 263              		.loc 1 18 25 is_stmt 0 discriminator 1 view .LVU68
 264 0052 A045     		cmp	r8, r4
 265              	.LBB278:
  29:ReactivePedal.cpp ****         out[1][i] = x;
 266              		.loc 1 29 19 view .LVU69
 267 0054 D7E90023 		ldrd	r2, r3, [r7]
  28:ReactivePedal.cpp ****         out[1][i] = x;
 268              		.loc 1 28 19 view .LVU70
 269 0058 3244     		add	r2, r2, r6
 270              		.loc 1 29 19 view .LVU71
 271 005a 3344     		add	r3, r3, r6
  28:ReactivePedal.cpp ****         out[1][i] = x;
 272              		.loc 1 28 19 view .LVU72
 273 005c 82ED008A 		vstr.32	s16, [r2]
 274              		.loc 1 29 9 is_stmt 1 view .LVU73
 275              		.loc 1 29 19 is_stmt 0 view .LVU74
 276 0060 83ED008A 		vstr.32	s16, [r3]
 277              	.LBE278:
  18:ReactivePedal.cpp ****     {
 278              		.loc 1 18 5 is_stmt 1 discriminator 2 view .LVU75
 279              	.LVL6:
  18:ReactivePedal.cpp ****     {
 280              		.loc 1 18 25 discriminator 1 view .LVU76
 281 0064 D5D1     		bne	.L6
  18:ReactivePedal.cpp ****     {
 282              		.loc 1 18 25 is_stmt 0 discriminator 1 view .LVU77
 283              	.LBE280:
  30:ReactivePedal.cpp ****     }
  31:ReactivePedal.cpp **** }
 284              		.loc 1 31 1 view .LVU78
 285 0066 BDEC028B 		vldm	sp!, {d8}
 286              		.cfi_restore 80
 287              		.cfi_restore 81
 288              		.cfi_def_cfa_offset 32
 289              	.LVL7:
 290              		.loc 1 31 1 view .LVU79
 291 006a BDE8F087 		pop	{r4, r5, r6, r7, r8, r9, r10, pc}
 292              	.LVL8:
 293              	.L15:
 294              		.cfi_def_cfa_offset 0
 295              		.cfi_restore 4
 296              		.cfi_restore 5
 297              		.cfi_restore 6
 298              		.cfi_restore 7
 299              		.cfi_restore 8
 300              		.cfi_restore 9
 301              		.cfi_restore 10
 302              		.cfi_restore 14
 303              		.loc 1 31 1 view .LVU80
 304 006e 7047     		bx	lr
 305              	.L19:
 306              		.align	2
 307              	.L18:
 308 0070 00000000 		.word	features
 309 0074 00000000 		.word	extractor
 310 0078 00000000 		.word	newFrameReady
 311 007c 00000000 		.word	latestFeatures
ARM GAS  /var/folders/6_/psd2b8g56p7696hhrr4ztjs00000gn/T//ccF5R8G2.s 			page 25


 312              		.cfi_endproc
 313              	.LFE4735:
 315              		.section	.rodata.main.str1.4,"aMS",%progbits,1
 316              		.align	2
 317              	.LC0:
 318 0000 44616973 		.ascii	"Daisy feature extractor starting...\000"
 318      79206665 
 318      61747572 
 318      65206578 
 318      74726163 
 319              		.align	2
 320              	.LC1:
 321 0024 41756469 		.ascii	"Audio started\000"
 321      6F207374 
 321      61727465 
 321      6400
 322 0032 0000     		.align	2
 323              	.LC2:
 324 0034 524D533A 		.ascii	"RMS: %d  Peak: %d  ZCR: %d  Centroid: %d  Flux: %d\000"
 324      20256420 
 324      20506561 
 324      6B3A2025 
 324      6420205A 
 325              		.section	.text.startup.main,"ax",%progbits
 326              		.align	1
 327              		.p2align 2,,3
 328              		.global	main
 329              		.syntax unified
 330              		.thumb
 331              		.thumb_func
 333              	main:
 334              	.LFB4736:
  32:ReactivePedal.cpp **** 
  33:ReactivePedal.cpp **** int main(void)
  34:ReactivePedal.cpp **** {
 335              		.loc 1 34 1 is_stmt 1 view -0
 336              		.cfi_startproc
 337              		@ Volatile: function does not return.
 338              		@ args = 0, pretend = 0, frame = 0
 339              		@ frame_needed = 0, uses_anonymous_args = 0
  35:ReactivePedal.cpp ****     hw.Init();
 340              		.loc 1 35 5 view .LVU82
  34:ReactivePedal.cpp ****     hw.Init();
 341              		.loc 1 34 1 is_stmt 0 view .LVU83
 342 0000 00B5     		push	{lr}
 343              		.cfi_def_cfa_offset 4
 344              		.cfi_offset 14, -4
 345              		.loc 1 35 12 view .LVU84
 346 0002 0021     		movs	r1, #0
  34:ReactivePedal.cpp ****     hw.Init();
 347              		.loc 1 34 1 view .LVU85
 348 0004 83B0     		sub	sp, sp, #12
 349              		.cfi_def_cfa_offset 16
 350              		.loc 1 35 12 view .LVU86
 351 0006 2D48     		ldr	r0, .L27
 352 0008 FFF7FEFF 		bl	_ZN5daisy8DaisyPod4InitEb
 353              	.LVL9:
ARM GAS  /var/folders/6_/psd2b8g56p7696hhrr4ztjs00000gn/T//ccF5R8G2.s 			page 26


  36:ReactivePedal.cpp ****     hw.seed.StartLog();
 354              		.loc 1 36 5 is_stmt 1 view .LVU87
 355              	.LBB281:
 356              	.LBI281:
  23:../libDaisy/src/daisy_seed.h **** 
  24:../libDaisy/src/daisy_seed.h ****     /** This function used to provide a pre-initialization configuraiton 
  25:../libDaisy/src/daisy_seed.h ****      *  it has since been deprecated, and does nothing.
  26:../libDaisy/src/daisy_seed.h ****      */
  27:../libDaisy/src/daisy_seed.h ****     void Configure();
  28:../libDaisy/src/daisy_seed.h **** 
  29:../libDaisy/src/daisy_seed.h ****     /** 
  30:../libDaisy/src/daisy_seed.h ****     Initializes the Daisy Seed and the following peripherals:
  31:../libDaisy/src/daisy_seed.h ****     SDRAM, QSPI, 24-bit 48kHz Audio via AK4556, Internal USB,
  32:../libDaisy/src/daisy_seed.h ****     as well as the built-in LED and Testpoint.
  33:../libDaisy/src/daisy_seed.h **** 
  34:../libDaisy/src/daisy_seed.h ****     ADCs, DACs, and other special peripherals (such as I2C, SPI, etc.)
  35:../libDaisy/src/daisy_seed.h ****     can be initialized using their specific initializers within libdaisy
  36:../libDaisy/src/daisy_seed.h ****     for a specific application.
  37:../libDaisy/src/daisy_seed.h ****     */
  38:../libDaisy/src/daisy_seed.h ****     void Init(bool boost = false);
  39:../libDaisy/src/daisy_seed.h **** 
  40:../libDaisy/src/daisy_seed.h ****     /** 
  41:../libDaisy/src/daisy_seed.h ****     Deinitializes all peripherals automatically handled by `Init`.
  42:../libDaisy/src/daisy_seed.h ****     */
  43:../libDaisy/src/daisy_seed.h ****     void DeInit();
  44:../libDaisy/src/daisy_seed.h **** 
  45:../libDaisy/src/daisy_seed.h ****     /** 
  46:../libDaisy/src/daisy_seed.h ****     Wait some ms before going on.
  47:../libDaisy/src/daisy_seed.h ****     \param del Delay time in ms.
  48:../libDaisy/src/daisy_seed.h ****     */
  49:../libDaisy/src/daisy_seed.h ****     void DelayMs(size_t del);
  50:../libDaisy/src/daisy_seed.h **** 
  51:../libDaisy/src/daisy_seed.h ****     /** 
  52:../libDaisy/src/daisy_seed.h ****     Returns the gpio_pin corresponding to the index 0-31.
  53:../libDaisy/src/daisy_seed.h ****     For the given GPIO on the Daisy Seed (labeled 1-32 in docs).
  54:../libDaisy/src/daisy_seed.h ****     */
  55:../libDaisy/src/daisy_seed.h ****     static dsy_gpio_pin GetPin(uint8_t pin_idx);
  56:../libDaisy/src/daisy_seed.h **** 
  57:../libDaisy/src/daisy_seed.h ****     /** Begins the audio for the seeds builtin audio.
  58:../libDaisy/src/daisy_seed.h ****     the specified callback will get called whenever
  59:../libDaisy/src/daisy_seed.h ****     new data is ready to be prepared.
  60:../libDaisy/src/daisy_seed.h ****     */
  61:../libDaisy/src/daisy_seed.h ****     void StartAudio(AudioHandle::InterleavingAudioCallback cb);
  62:../libDaisy/src/daisy_seed.h **** 
  63:../libDaisy/src/daisy_seed.h ****     /** Begins the audio for the seeds builtin audio.
  64:../libDaisy/src/daisy_seed.h ****     the specified callback will get called whenever
  65:../libDaisy/src/daisy_seed.h ****     new data is ready to be prepared.
  66:../libDaisy/src/daisy_seed.h ****     This will use the newer non-interleaved callback.
  67:../libDaisy/src/daisy_seed.h ****     */
  68:../libDaisy/src/daisy_seed.h ****     void StartAudio(AudioHandle::AudioCallback cb);
  69:../libDaisy/src/daisy_seed.h **** 
  70:../libDaisy/src/daisy_seed.h ****     /** Changes to a new interleaved callback
  71:../libDaisy/src/daisy_seed.h ****      */
  72:../libDaisy/src/daisy_seed.h ****     void ChangeAudioCallback(AudioHandle::InterleavingAudioCallback cb);
  73:../libDaisy/src/daisy_seed.h **** 
  74:../libDaisy/src/daisy_seed.h ****     /** Changes to a new multichannel callback
  75:../libDaisy/src/daisy_seed.h ****      */
ARM GAS  /var/folders/6_/psd2b8g56p7696hhrr4ztjs00000gn/T//ccF5R8G2.s 			page 27


  76:../libDaisy/src/daisy_seed.h ****     void ChangeAudioCallback(AudioHandle::AudioCallback cb);
  77:../libDaisy/src/daisy_seed.h **** 
  78:../libDaisy/src/daisy_seed.h ****     /** Stops the audio if it is running. */
  79:../libDaisy/src/daisy_seed.h ****     void StopAudio();
  80:../libDaisy/src/daisy_seed.h **** 
  81:../libDaisy/src/daisy_seed.h ****     /** Updates the Audio Sample Rate, and reinitializes.
  82:../libDaisy/src/daisy_seed.h ****      ** Audio must be stopped for this to work.
  83:../libDaisy/src/daisy_seed.h ****      */
  84:../libDaisy/src/daisy_seed.h ****     void SetAudioSampleRate(SaiHandle::Config::SampleRate samplerate);
  85:../libDaisy/src/daisy_seed.h **** 
  86:../libDaisy/src/daisy_seed.h ****     /** Returns the audio sample rate in Hz as a floating point number.
  87:../libDaisy/src/daisy_seed.h ****      */
  88:../libDaisy/src/daisy_seed.h ****     float AudioSampleRate();
  89:../libDaisy/src/daisy_seed.h **** 
  90:../libDaisy/src/daisy_seed.h ****     /** Sets the number of samples processed per channel by the audio callback.
  91:../libDaisy/src/daisy_seed.h ****      */
  92:../libDaisy/src/daisy_seed.h ****     void SetAudioBlockSize(size_t blocksize);
  93:../libDaisy/src/daisy_seed.h **** 
  94:../libDaisy/src/daisy_seed.h ****     /** Returns the number of samples per channel in a block of audio. */
  95:../libDaisy/src/daisy_seed.h ****     size_t AudioBlockSize();
  96:../libDaisy/src/daisy_seed.h **** 
  97:../libDaisy/src/daisy_seed.h ****     /** Returns the rate in Hz that the Audio callback is called */
  98:../libDaisy/src/daisy_seed.h ****     float AudioCallbackRate() const;
  99:../libDaisy/src/daisy_seed.h **** 
 100:../libDaisy/src/daisy_seed.h ****     /** Returns the SAI Handle for the Daisy Seed 
 101:../libDaisy/src/daisy_seed.h ****      *  This can be useful when adding a secondary codec,
 102:../libDaisy/src/daisy_seed.h ****      *  the result of this function can be passed to the audio reinit 
 103:../libDaisy/src/daisy_seed.h ****      *  with an SAI2 configuration
 104:../libDaisy/src/daisy_seed.h ****      */
 105:../libDaisy/src/daisy_seed.h ****     const SaiHandle& AudioSaiHandle() const;
 106:../libDaisy/src/daisy_seed.h **** 
 107:../libDaisy/src/daisy_seed.h ****     /** Sets the state of the built in LED
 108:../libDaisy/src/daisy_seed.h ****      */
 109:../libDaisy/src/daisy_seed.h ****     void SetLed(bool state);
 110:../libDaisy/src/daisy_seed.h **** 
 111:../libDaisy/src/daisy_seed.h ****     /** Sets the state of the test point near pin 10
 112:../libDaisy/src/daisy_seed.h ****      */
 113:../libDaisy/src/daisy_seed.h ****     void SetTestPoint(bool state);
 114:../libDaisy/src/daisy_seed.h **** 
 115:../libDaisy/src/daisy_seed.h ****     /** Print formatted debug log message
 116:../libDaisy/src/daisy_seed.h ****      */
 117:../libDaisy/src/daisy_seed.h ****     template <typename... VA>
 118:../libDaisy/src/daisy_seed.h ****     static void Print(const char* format, VA... va)
 119:../libDaisy/src/daisy_seed.h ****     {
 120:../libDaisy/src/daisy_seed.h ****         Log::Print(format, va...);
 121:../libDaisy/src/daisy_seed.h ****     }
 122:../libDaisy/src/daisy_seed.h **** 
 123:../libDaisy/src/daisy_seed.h ****     /** Print formatted debug log message with automatic line termination
 124:../libDaisy/src/daisy_seed.h ****     */
 125:../libDaisy/src/daisy_seed.h ****     template <typename... VA>
 126:../libDaisy/src/daisy_seed.h ****     static void PrintLine(const char* format, VA... va)
 127:../libDaisy/src/daisy_seed.h ****     {
 128:../libDaisy/src/daisy_seed.h ****         Log::PrintLine(format, va...);
 129:../libDaisy/src/daisy_seed.h ****     }
 130:../libDaisy/src/daisy_seed.h **** 
 131:../libDaisy/src/daisy_seed.h ****     /** Start the logging session. Optionally wait for terminal connection before proceeding.
 132:../libDaisy/src/daisy_seed.h ****     */
ARM GAS  /var/folders/6_/psd2b8g56p7696hhrr4ztjs00000gn/T//ccF5R8G2.s 			page 28


 133:../libDaisy/src/daisy_seed.h ****     static void StartLog(bool wait_for_pc = false)
 357              		.loc 11 133 17 view .LVU88
 358              	.LBB282:
 134:../libDaisy/src/daisy_seed.h ****     {
 135:../libDaisy/src/daisy_seed.h ****         Log::StartLog(wait_for_pc);
 359              		.loc 11 135 9 view .LVU89
 360              		.loc 11 135 22 is_stmt 0 view .LVU90
 361 000c 0020     		movs	r0, #0
 362 000e FFF7FEFF 		bl	_ZN5daisy6LoggerILNS_17LoggerDestinationE1EE8StartLogEb
 363              	.LVL10:
 364              		.loc 11 135 22 view .LVU91
 365              	.LBE282:
 366              	.LBE281:
  37:ReactivePedal.cpp ****     System::Delay(3000);
 367              		.loc 1 37 5 is_stmt 1 view .LVU92
 368              		.loc 1 37 18 is_stmt 0 view .LVU93
 369 0012 40F6B830 		movw	r0, #3000
 370 0016 FFF7FEFF 		bl	_ZN5daisy6System5DelayEm
 371              	.LVL11:
  38:ReactivePedal.cpp **** 
  39:ReactivePedal.cpp ****     hw.SetAudioBlockSize(48);
 372              		.loc 1 39 5 is_stmt 1 view .LVU94
 373              		.loc 1 39 25 is_stmt 0 view .LVU95
 374 001a 3021     		movs	r1, #48
 375 001c 2748     		ldr	r0, .L27
 376 001e FFF7FEFF 		bl	_ZN5daisy8DaisyPod17SetAudioBlockSizeEj
 377              	.LVL12:
  40:ReactivePedal.cpp ****     hw.SetAudioSampleRate(SaiHandle::Config::SampleRate::SAI_48KHZ);
 378              		.loc 1 40 5 is_stmt 1 view .LVU96
 379              		.loc 1 40 26 is_stmt 0 view .LVU97
 380 0022 0321     		movs	r1, #3
 381 0024 2548     		ldr	r0, .L27
 382 0026 FFF7FEFF 		bl	_ZN5daisy8DaisyPod18SetAudioSampleRateENS_9SaiHandle6Config10SampleRateE
 383              	.LVL13:
  41:ReactivePedal.cpp **** 
  42:ReactivePedal.cpp ****     extractor.Init(256, 48000.0f);
 384              		.loc 1 42 5 is_stmt 1 view .LVU98
 385              		.loc 1 42 19 is_stmt 0 view .LVU99
 386 002a 9FED250A 		vldr.32	s0, .L27+4
 387 002e 4FF48071 		mov	r1, #256
 388 0032 2448     		ldr	r0, .L27+8
 389 0034 FFF7FEFF 		bl	_ZN16FeatureExtractor4InitEjf
 390              	.LVL14:
  43:ReactivePedal.cpp **** 
  44:ReactivePedal.cpp ****     hw.seed.PrintLine("Daisy feature extractor starting...");
 391              		.loc 1 44 5 is_stmt 1 view .LVU100
 392              	.LBB283:
 393              	.LBI283:
 126:../libDaisy/src/daisy_seed.h ****     {
 394              		.loc 11 126 17 view .LVU101
 395              	.LBB284:
 128:../libDaisy/src/daisy_seed.h ****     }
 396              		.loc 11 128 23 is_stmt 0 view .LVU102
 397 0038 2348     		ldr	r0, .L27+12
 398 003a FFF7FEFF 		bl	_ZN5daisy6LoggerILNS_17LoggerDestinationE1EE9PrintLineEPKcz
 399              	.LVL15:
 128:../libDaisy/src/daisy_seed.h ****     }
ARM GAS  /var/folders/6_/psd2b8g56p7696hhrr4ztjs00000gn/T//ccF5R8G2.s 			page 29


 400              		.loc 11 128 23 view .LVU103
 401              	.LBE284:
 402              	.LBE283:
  45:ReactivePedal.cpp ****     hw.StartAdc();
 403              		.loc 1 45 5 is_stmt 1 view .LVU104
 404              		.loc 1 45 16 is_stmt 0 view .LVU105
 405 003e 1F48     		ldr	r0, .L27
 406 0040 FFF7FEFF 		bl	_ZN5daisy8DaisyPod8StartAdcEv
 407              	.LVL16:
  46:ReactivePedal.cpp ****     hw.StartAudio(AudioCallBack);
 408              		.loc 1 46 5 is_stmt 1 view .LVU106
 409 0044 214D     		ldr	r5, .L27+16
 410              		.loc 1 46 18 is_stmt 0 view .LVU107
 411 0046 2249     		ldr	r1, .L27+20
 412 0048 1C48     		ldr	r0, .L27
 413 004a 224C     		ldr	r4, .L27+24
 414 004c FFF7FEFF 		bl	_ZN5daisy8DaisyPod10StartAudioEPFvPKPKfPPfjE
 415              	.LVL17:
  47:ReactivePedal.cpp ****     hw.seed.PrintLine("Audio started");
 416              		.loc 1 47 5 is_stmt 1 view .LVU108
 417              	.LBB285:
 418              	.LBI285:
 126:../libDaisy/src/daisy_seed.h ****     {
 419              		.loc 11 126 17 view .LVU109
 420              	.LBB286:
 128:../libDaisy/src/daisy_seed.h ****     }
 421              		.loc 11 128 23 is_stmt 0 view .LVU110
 422 0050 2148     		ldr	r0, .L27+28
 423 0052 FFF7FEFF 		bl	_ZN5daisy6LoggerILNS_17LoggerDestinationE1EE9PrintLineEPKcz
 424              	.LVL18:
 425              	.L22:
 128:../libDaisy/src/daisy_seed.h ****     }
 426              		.loc 11 128 23 view .LVU111
 427              	.LBE286:
 428              	.LBE285:
  48:ReactivePedal.cpp **** 
  49:ReactivePedal.cpp ****     while(1)
 429              		.loc 1 49 5 is_stmt 1 view .LVU112
  50:ReactivePedal.cpp ****     {
  51:ReactivePedal.cpp ****         if(newFrameReady)
 430              		.loc 1 51 9 view .LVU113
  52:ReactivePedal.cpp ****         {
  53:ReactivePedal.cpp ****             newFrameReady = false;
 431              		.loc 1 53 13 view .LVU114
  51:ReactivePedal.cpp ****         {
 432              		.loc 1 51 12 is_stmt 0 view .LVU115
 433 0056 2B78     		ldrb	r3, [r5]	@ zero_extendqisi2
 434              		.loc 1 53 27 view .LVU116
 435 0058 0022     		movs	r2, #0
  54:ReactivePedal.cpp **** 
  55:ReactivePedal.cpp ****             hw.seed.PrintLine("RMS: %d  Peak: %d  ZCR: %d  Centroid: %d  Flux: %d",
  56:ReactivePedal.cpp ****                   (int)(latestFeatures.rms * 1000),
  57:ReactivePedal.cpp ****                   (int)(latestFeatures.peak * 1000),
  58:ReactivePedal.cpp ****                   (int)(latestFeatures.zcr * 1000),
 436              		.loc 1 58 44 view .LVU117
 437 005a 9FED207A 		vldr.32	s14, .L27+32
 438              	.LBB287:
ARM GAS  /var/folders/6_/psd2b8g56p7696hhrr4ztjs00000gn/T//ccF5R8G2.s 			page 30


 439              	.LBB288:
 128:../libDaisy/src/daisy_seed.h ****     }
 440              		.loc 11 128 23 view .LVU118
 441 005e 2048     		ldr	r0, .L27+36
 442              	.LBE288:
 443              	.LBE287:
  51:ReactivePedal.cpp ****         {
 444              		.loc 1 51 9 view .LVU119
 445 0060 43B3     		cbz	r3, .L21
 446              		.loc 1 58 44 view .LVU120
 447 0062 94ED025A 		vldr.32	s10, [r4, #8]
  56:ReactivePedal.cpp ****                   (int)(latestFeatures.peak * 1000),
 448              		.loc 1 56 44 view .LVU121
 449 0066 94ED006A 		vldr.32	s12, [r4]
 450              		.loc 1 58 44 view .LVU122
 451 006a 25EE075A 		vmul.f32	s10, s10, s14
  59:ReactivePedal.cpp ****                   (int)(latestFeatures.spectralCentroid),
  60:ReactivePedal.cpp ****                   (int)(latestFeatures.spectralFlux * 1000));
 452              		.loc 1 60 53 view .LVU123
 453 006e D4ED047A 		vldr.32	s15, [r4, #16]
  57:ReactivePedal.cpp ****                   (int)(latestFeatures.zcr * 1000),
 454              		.loc 1 57 45 view .LVU124
 455 0072 D4ED015A 		vldr.32	s11, [r4, #4]
 456              		.loc 1 60 53 view .LVU125
 457 0076 67EE877A 		vmul.f32	s15, s15, s14
  55:ReactivePedal.cpp ****                   (int)(latestFeatures.rms * 1000),
 458              		.loc 1 55 30 view .LVU126
 459 007a D4ED036A 		vldr.32	s13, [r4, #12]
  57:ReactivePedal.cpp ****                   (int)(latestFeatures.zcr * 1000),
 460              		.loc 1 57 45 view .LVU127
 461 007e 65EE875A 		vmul.f32	s11, s11, s14
  53:ReactivePedal.cpp **** 
 462              		.loc 1 53 27 view .LVU128
 463 0082 2A70     		strb	r2, [r5]
  55:ReactivePedal.cpp ****                   (int)(latestFeatures.rms * 1000),
 464              		.loc 1 55 13 is_stmt 1 view .LVU129
 465              	.LVL19:
 466              	.LBB291:
 467              	.LBI287:
 126:../libDaisy/src/daisy_seed.h ****     {
 468              		.loc 11 126 17 view .LVU130
 469              	.LBE291:
  56:ReactivePedal.cpp ****                   (int)(latestFeatures.peak * 1000),
 470              		.loc 1 56 44 is_stmt 0 view .LVU131
 471 0084 26EE077A 		vmul.f32	s14, s12, s14
 472              	.LBB292:
 473              	.LBB289:
 128:../libDaisy/src/daisy_seed.h ****     }
 474              		.loc 11 128 23 view .LVU132
 475 0088 BDEEC56A 		vcvt.s32.f32	s12, s10
 476              	.LVL20:
 128:../libDaisy/src/daisy_seed.h ****     }
 477              		.loc 11 128 23 view .LVU133
 478              	.LBE289:
 479              	.LBE292:
  55:ReactivePedal.cpp ****                   (int)(latestFeatures.rms * 1000),
 480              		.loc 1 55 30 view .LVU134
ARM GAS  /var/folders/6_/psd2b8g56p7696hhrr4ztjs00000gn/T//ccF5R8G2.s 			page 31


 481 008c FDEEE66A 		vcvt.s32.f32	s13, s13
 482              	.LVL21:
  55:ReactivePedal.cpp ****                   (int)(latestFeatures.rms * 1000),
 483              		.loc 1 55 30 view .LVU135
 484 0090 FDEEE77A 		vcvt.s32.f32	s15, s15
 485              	.LBB293:
 486              	.LBB290:
 128:../libDaisy/src/daisy_seed.h ****     }
 487              		.loc 11 128 23 view .LVU136
 488 0094 BDEEC77A 		vcvt.s32.f32	s14, s14
 489 0098 16EE103A 		vmov	r3, s12	@ int
 490 009c BDEEE56A 		vcvt.s32.f32	s12, s11
 491 00a0 CDED006A 		vstr.32	s13, [sp]	@ int
 492 00a4 CDED017A 		vstr.32	s15, [sp, #4]	@ int
 493 00a8 17EE101A 		vmov	r1, s14	@ int
 494 00ac 16EE102A 		vmov	r2, s12	@ int
 495 00b0 FFF7FEFF 		bl	_ZN5daisy6LoggerILNS_17LoggerDestinationE1EE9PrintLineEPKcz
 496              	.LVL22:
 497              	.L21:
 128:../libDaisy/src/daisy_seed.h ****     }
 498              		.loc 11 128 23 view .LVU137
 499              	.LBE290:
 500              	.LBE293:
  61:ReactivePedal.cpp ****         }
  62:ReactivePedal.cpp **** 
  63:ReactivePedal.cpp ****         System::Delay(50);
 501              		.loc 1 63 9 is_stmt 1 view .LVU138
 502              		.loc 1 63 22 is_stmt 0 view .LVU139
 503 00b4 3220     		movs	r0, #50
 504 00b6 FFF7FEFF 		bl	_ZN5daisy6System5DelayEm
 505              	.LVL23:
  49:ReactivePedal.cpp ****     {
 506              		.loc 1 49 5 is_stmt 1 view .LVU140
  51:ReactivePedal.cpp ****         {
 507              		.loc 1 51 9 is_stmt 0 view .LVU141
 508 00ba CCE7     		b	.L22
 509              	.L28:
 510              		.align	2
 511              	.L27:
 512 00bc 00000000 		.word	hw
 513 00c0 00803B47 		.word	1195081728
 514 00c4 00000000 		.word	extractor
 515 00c8 00000000 		.word	.LC0
 516 00cc 00000000 		.word	newFrameReady
 517 00d0 00000000 		.word	_Z13AudioCallBackPKPKfPPfj
 518 00d4 00000000 		.word	latestFeatures
 519 00d8 24000000 		.word	.LC1
 520 00dc 00007A44 		.word	1148846080
 521 00e0 34000000 		.word	.LC2
 522              		.cfi_endproc
 523              	.LFE4736:
 525              		.section	.text.startup._GLOBAL__sub_I_newFrameReady,"ax",%progbits
 526              		.align	1
 527              		.p2align 2,,3
 528              		.syntax unified
 529              		.thumb
 530              		.thumb_func
ARM GAS  /var/folders/6_/psd2b8g56p7696hhrr4ztjs00000gn/T//ccF5R8G2.s 			page 32


 532              	_GLOBAL__sub_I_newFrameReady:
 533              	.LFB5386:
  64:ReactivePedal.cpp ****     }
  65:ReactivePedal.cpp **** }...
 534              		.loc 1 65 1 is_stmt 1 view -0
 535              		.cfi_startproc
 536              		@ args = 0, pretend = 0, frame = 0
 537              		@ frame_needed = 0, uses_anonymous_args = 0
 538              	.LBB366:
 539              	.LBI366:
 540              		.loc 1 65 1 view .LVU143
 541              	.LVL24:
 542              	.LBB367:
 543              	.LBB368:
 544              	.LBI368:
  35:../libDaisy/src/daisy_pod.h ****     ~DaisyPod() {}
 545              		.loc 2 35 5 view .LVU144
 546              	.LBB369:
 547              	.LBB370:
 548              	.LBI370:
  21:../libDaisy/src/daisy_seed.h ****     ~DaisySeed() {}
 549              		.loc 11 21 5 view .LVU145
 550              	.LBB371:
 551              	.LBB372:
 552              	.LBI372:
 553              		.file 16 "../libDaisy/src/per/qspi.h"
   1:../libDaisy/src/per/qspi.h **** #ifndef DSY_QSPI
   2:../libDaisy/src/per/qspi.h **** #define DSY_QSPI /**< Macro */
   3:../libDaisy/src/per/qspi.h **** 
   4:../libDaisy/src/per/qspi.h **** #ifndef UNIT_TEST // for unit tests, a dummy implementation
   5:../libDaisy/src/per/qspi.h **** 
   6:../libDaisy/src/per/qspi.h **** #include <cstdint>
   7:../libDaisy/src/per/qspi.h **** #include "daisy_core.h" // Added for dsy_gpio_pin typedef
   8:../libDaisy/src/per/qspi.h **** 
   9:../libDaisy/src/per/qspi.h **** #define DSY_QSPI_TEXT       \
  10:../libDaisy/src/per/qspi.h ****     __attribute__((section( \
  11:../libDaisy/src/per/qspi.h ****         ".qspiflash_text"))) /**< used for reading memory in memory_mapped mode. */
  12:../libDaisy/src/per/qspi.h **** #define DSY_QSPI_DATA       \
  13:../libDaisy/src/per/qspi.h ****     __attribute__((section( \
  14:../libDaisy/src/per/qspi.h ****         ".qspiflash_data"))) /**< used for reading memory in memory_mapped mode. */
  15:../libDaisy/src/per/qspi.h **** #define DSY_QSPI_BSS        \
  16:../libDaisy/src/per/qspi.h ****     __attribute__((section( \
  17:../libDaisy/src/per/qspi.h ****         ".qspiflash_bss"))) /**< used for reading memory in memory_mapped mode. */
  18:../libDaisy/src/per/qspi.h **** 
  19:../libDaisy/src/per/qspi.h **** namespace daisy
  20:../libDaisy/src/per/qspi.h **** {
  21:../libDaisy/src/per/qspi.h **** /** @addtogroup serial
  22:../libDaisy/src/per/qspi.h **** @{
  23:../libDaisy/src/per/qspi.h **** */
  24:../libDaisy/src/per/qspi.h **** 
  25:../libDaisy/src/per/qspi.h **** /** 
  26:../libDaisy/src/per/qspi.h ****  Driver for QSPI peripheral to interface with external flash memory. \n 
  27:../libDaisy/src/per/qspi.h ****     Currently supported QSPI Devices: \n 
  28:../libDaisy/src/per/qspi.h ****     * IS25LP080D
  29:../libDaisy/src/per/qspi.h **** */
  30:../libDaisy/src/per/qspi.h **** class QSPIHandle
  31:../libDaisy/src/per/qspi.h **** {
ARM GAS  /var/folders/6_/psd2b8g56p7696hhrr4ztjs00000gn/T//ccF5R8G2.s 			page 33


  32:../libDaisy/src/per/qspi.h ****   public:
  33:../libDaisy/src/per/qspi.h ****     enum Result
  34:../libDaisy/src/per/qspi.h ****     {
  35:../libDaisy/src/per/qspi.h ****         OK = 0,
  36:../libDaisy/src/per/qspi.h ****         ERR
  37:../libDaisy/src/per/qspi.h ****     };
  38:../libDaisy/src/per/qspi.h **** 
  39:../libDaisy/src/per/qspi.h ****     /** Indicates the current status of the module. 
  40:../libDaisy/src/per/qspi.h ****          *  Warnings are indicated by a leading W.
  41:../libDaisy/src/per/qspi.h ****          *  Errors are indicated by a leading E and cause an immediate exit.
  42:../libDaisy/src/per/qspi.h ****          * 
  43:../libDaisy/src/per/qspi.h ****          *  \param GOOD - No errors have been reported.
  44:../libDaisy/src/per/qspi.h ****          *  \param E_HAL_ERROR - HAL code did not return HAL_OK.
  45:../libDaisy/src/per/qspi.h ****          *  \param E_SWITCHING_MODES - An error was encountered while switching QSPI peripheral mod
  46:../libDaisy/src/per/qspi.h ****          *  \param E_INVALID_MODE - QSPI should not be written to while the program is executing fr
  47:../libDaisy/src/per/qspi.h ****          */
  48:../libDaisy/src/per/qspi.h ****     enum Status
  49:../libDaisy/src/per/qspi.h ****     {
  50:../libDaisy/src/per/qspi.h ****         GOOD = 0,
  51:../libDaisy/src/per/qspi.h ****         E_HAL_ERROR,
  52:../libDaisy/src/per/qspi.h ****         E_SWITCHING_MODES,
  53:../libDaisy/src/per/qspi.h ****         E_INVALID_MODE,
  54:../libDaisy/src/per/qspi.h ****     };
  55:../libDaisy/src/per/qspi.h **** 
  56:../libDaisy/src/per/qspi.h ****     /** Configuration structure for interfacing with QSPI Driver */
  57:../libDaisy/src/per/qspi.h ****     struct Config
  58:../libDaisy/src/per/qspi.h ****     {
  59:../libDaisy/src/per/qspi.h ****         /** Flash Devices supported. (Both of these are more-or-less the same, just different sizes
  60:../libDaisy/src/per/qspi.h ****         enum Device
  61:../libDaisy/src/per/qspi.h ****         {
  62:../libDaisy/src/per/qspi.h ****             IS25LP080D,  /**< & */
  63:../libDaisy/src/per/qspi.h ****             IS25LP064A,  /**< & */
  64:../libDaisy/src/per/qspi.h ****             DEVICE_LAST, /**< & */
  65:../libDaisy/src/per/qspi.h ****         };
  66:../libDaisy/src/per/qspi.h **** 
  67:../libDaisy/src/per/qspi.h ****         /** 
  68:../libDaisy/src/per/qspi.h ****         Modes of operation.
  69:../libDaisy/src/per/qspi.h ****         Memory Mapped mode: QSPI configured so that the QSPI can be
  70:../libDaisy/src/per/qspi.h ****         read from starting address 0x90000000. Writing is not
  71:../libDaisy/src/per/qspi.h ****         possible in this mode. \n 
  72:../libDaisy/src/per/qspi.h ****         Indirect Polling mode: Device driver enabled. 
  73:../libDaisy/src/per/qspi.h ****         */
  74:../libDaisy/src/per/qspi.h ****         enum Mode
  75:../libDaisy/src/per/qspi.h ****         {
  76:../libDaisy/src/per/qspi.h ****             MEMORY_MAPPED,    /**< & */
  77:../libDaisy/src/per/qspi.h ****             INDIRECT_POLLING, /**< & */
  78:../libDaisy/src/per/qspi.h ****             MODE_LAST,
  79:../libDaisy/src/per/qspi.h ****         };
  80:../libDaisy/src/per/qspi.h **** 
  81:../libDaisy/src/per/qspi.h ****         //SCK,  CE# (active low)
  82:../libDaisy/src/per/qspi.h ****         struct
  83:../libDaisy/src/per/qspi.h ****         {
  84:../libDaisy/src/per/qspi.h ****             dsy_gpio_pin io0; /**< & */
  85:../libDaisy/src/per/qspi.h ****             dsy_gpio_pin io1; /**< & */
  86:../libDaisy/src/per/qspi.h ****             dsy_gpio_pin io2; /**< & */
  87:../libDaisy/src/per/qspi.h ****             dsy_gpio_pin io3; /**< & */
  88:../libDaisy/src/per/qspi.h ****             dsy_gpio_pin clk; /**< & */
ARM GAS  /var/folders/6_/psd2b8g56p7696hhrr4ztjs00000gn/T//ccF5R8G2.s 			page 34


  89:../libDaisy/src/per/qspi.h ****             dsy_gpio_pin ncs; /**< & */
  90:../libDaisy/src/per/qspi.h ****         } pin_config;
  91:../libDaisy/src/per/qspi.h **** 
  92:../libDaisy/src/per/qspi.h ****         Device device;
  93:../libDaisy/src/per/qspi.h ****         Mode   mode;
  94:../libDaisy/src/per/qspi.h ****     };
  95:../libDaisy/src/per/qspi.h **** 
  96:../libDaisy/src/per/qspi.h ****     /** 
  97:../libDaisy/src/per/qspi.h ****         Initializes QSPI peripheral, and Resets, and prepares memory for access.
  98:../libDaisy/src/per/qspi.h ****         \param config should be populated with the mode, device and pin_config before calling this 
  99:../libDaisy/src/per/qspi.h ****         \return Result::OK or Result::ERR
 100:../libDaisy/src/per/qspi.h ****         */
 101:../libDaisy/src/per/qspi.h ****     Result Init(const Config& config);
 102:../libDaisy/src/per/qspi.h **** 
 103:../libDaisy/src/per/qspi.h ****     /** Returns the current config. */
 104:../libDaisy/src/per/qspi.h ****     const Config& GetConfig() const;
 105:../libDaisy/src/per/qspi.h **** 
 106:../libDaisy/src/per/qspi.h ****     // Couldn't this just be called before anything else in init? That
 107:../libDaisy/src/per/qspi.h ****     // would make manually calling it unnecessary.
 108:../libDaisy/src/per/qspi.h ****     /** 
 109:../libDaisy/src/per/qspi.h ****         Deinitializes the peripheral
 110:../libDaisy/src/per/qspi.h ****         This should be called before reinitializing QSPI in a different mode.
 111:../libDaisy/src/per/qspi.h ****         \return Result::OK or Result::ERR
 112:../libDaisy/src/per/qspi.h ****         */
 113:../libDaisy/src/per/qspi.h ****     Result DeInit();
 114:../libDaisy/src/per/qspi.h **** 
 115:../libDaisy/src/per/qspi.h ****     /** 
 116:../libDaisy/src/per/qspi.h ****         Writes a single page to to the specified address on the QSPI chip.
 117:../libDaisy/src/per/qspi.h ****         For IS25LP*, page size is 256 bytes.
 118:../libDaisy/src/per/qspi.h ****         \param address Address to write to
 119:../libDaisy/src/per/qspi.h ****         \param size Buffer size
 120:../libDaisy/src/per/qspi.h ****         \param buffer Buffer to write
 121:../libDaisy/src/per/qspi.h ****         \return Result::OK or Result::ERR
 122:../libDaisy/src/per/qspi.h ****         */
 123:../libDaisy/src/per/qspi.h ****     Result WritePage(uint32_t address, uint32_t size, uint8_t* buffer);
 124:../libDaisy/src/per/qspi.h **** 
 125:../libDaisy/src/per/qspi.h ****     /** 
 126:../libDaisy/src/per/qspi.h ****         Writes data in buffer to to the QSPI. Starting at address to address+size 
 127:../libDaisy/src/per/qspi.h ****         \param address Address to write to
 128:../libDaisy/src/per/qspi.h ****         \param size Buffer size
 129:../libDaisy/src/per/qspi.h ****         \param buffer Buffer to write
 130:../libDaisy/src/per/qspi.h ****         \return Result::OK or Result::ERR
 131:../libDaisy/src/per/qspi.h ****         */
 132:../libDaisy/src/per/qspi.h ****     Result Write(uint32_t address, uint32_t size, uint8_t* buffer);
 133:../libDaisy/src/per/qspi.h **** 
 134:../libDaisy/src/per/qspi.h ****     /** 
 135:../libDaisy/src/per/qspi.h ****         Erases the area specified on the chip.
 136:../libDaisy/src/per/qspi.h ****         Erasures will happen by 4K, 32K or 64K increments.
 137:../libDaisy/src/per/qspi.h ****         Smallest erase possible is 4kB at a time. (on IS25LP*)
 138:../libDaisy/src/per/qspi.h ****         \param start_addr Address to begin erasing from
 139:../libDaisy/src/per/qspi.h ****         \param end_addr  Address to stop erasing at
 140:../libDaisy/src/per/qspi.h ****         \return Result::OK or Result::ERR
 141:../libDaisy/src/per/qspi.h ****         */
 142:../libDaisy/src/per/qspi.h ****     Result Erase(uint32_t start_addr, uint32_t end_addr);
 143:../libDaisy/src/per/qspi.h **** 
 144:../libDaisy/src/per/qspi.h ****     /**  
 145:../libDaisy/src/per/qspi.h ****          Erases a single sector of the chip.  
ARM GAS  /var/folders/6_/psd2b8g56p7696hhrr4ztjs00000gn/T//ccF5R8G2.s 			page 35


 146:../libDaisy/src/per/qspi.h ****         TODO: Document the size of this function. 
 147:../libDaisy/src/per/qspi.h ****         \param address Address of sector to erase
 148:../libDaisy/src/per/qspi.h ****         \return Result::OK or Result::ERR
 149:../libDaisy/src/per/qspi.h ****         */
 150:../libDaisy/src/per/qspi.h ****     Result EraseSector(uint32_t address);
 151:../libDaisy/src/per/qspi.h **** 
 152:../libDaisy/src/per/qspi.h ****     /** Returns the current class status. Useful for debugging.
 153:../libDaisy/src/per/qspi.h ****      *  \returns Status
 154:../libDaisy/src/per/qspi.h ****      */
 155:../libDaisy/src/per/qspi.h ****     Status GetStatus();
 156:../libDaisy/src/per/qspi.h **** 
 157:../libDaisy/src/per/qspi.h ****     /** Returns a pointer to the actual memory used 
 158:../libDaisy/src/per/qspi.h ****      *  The memory at this address is read-only
 159:../libDaisy/src/per/qspi.h ****      *  to write to it use the Write function.
 160:../libDaisy/src/per/qspi.h ****      * 
 161:../libDaisy/src/per/qspi.h ****      *  \param offset returns the pointer starting this 
 162:../libDaisy/src/per/qspi.h ****      *                many bytes into the memory
 163:../libDaisy/src/per/qspi.h ****     */
 164:../libDaisy/src/per/qspi.h ****     void* GetData(uint32_t offset = 0);
 165:../libDaisy/src/per/qspi.h **** 
 166:../libDaisy/src/per/qspi.h ****     QSPIHandle() : pimpl_(nullptr) {}
 554              		.loc 16 166 5 view .LVU146
 555              	.LBE372:
 556              	.LBE371:
 557              	.LBE370:
 558              	.LBE369:
 559              	.LBE368:
 560              	.LBE367:
 561              	.LBE366:
 562              		.loc 1 65 1 is_stmt 0 view .LVU147
 563 0000 38B5     		push	{r3, r4, r5, lr}
 564              		.cfi_def_cfa_offset 16
 565              		.cfi_offset 3, -16
 566              		.cfi_offset 4, -12
 567              		.cfi_offset 5, -8
 568              		.cfi_offset 14, -4
 569              	.LBB470:
 570              	.LBB469:
 571              	.LBB460:
 572              	.LBB457:
 573              	.LBB393:
 574              	.LBB391:
 575              	.LBB377:
 576              	.LBB373:
 577              	.LBB374:
 578              		.loc 16 166 20 view .LVU148
 579 0002 154C     		ldr	r4, .L31
 580 0004 0025     		movs	r5, #0
 581              	.LBE374:
 582              	.LBE373:
 583              	.LBE377:
 584              	.LBE391:
 585              	.LBE393:
 586              	.LBB394:
 587              	.LBB395:
 588              	.LBB396:
 589              	.LBB397:
ARM GAS  /var/folders/6_/psd2b8g56p7696hhrr4ztjs00000gn/T//ccF5R8G2.s 			page 36


 157:../libDaisy/src/hid/midi.h **** 
 158:../libDaisy/src/hid/midi.h ****     struct Config
 590              		.loc 3 158 12 view .LVU149
 591 0006 04F5C070 		add	r0, r4, #384
 592              	.LBE397:
 593              	.LBE396:
 594              	.LBE395:
 595              	.LBE394:
 596              	.LBB436:
 597              	.LBB392:
 598              	.LBB378:
 599              	.LBB376:
 600              	.LBB375:
 601              		.loc 16 166 20 view .LVU150
 602 000a 2560     		str	r5, [r4]
 603              	.LVL25:
 604              		.loc 16 166 20 view .LVU151
 605              	.LBE375:
 606              	.LBE376:
 607              	.LBE378:
 608              	.LBB379:
 609              	.LBI379:
  95:../libDaisy/src/hid/audio.h ****     ~AudioHandle() {}
 610              		.loc 15 95 5 is_stmt 1 view .LVU152
 611              	.LBB380:
 612              	.LBB381:
  95:../libDaisy/src/hid/audio.h ****     ~AudioHandle() {}
 613              		.loc 15 95 21 is_stmt 0 view .LVU153
 614 000c 6561     		str	r5, [r4, #20]
 615              	.LVL26:
  95:../libDaisy/src/hid/audio.h ****     ~AudioHandle() {}
 616              		.loc 15 95 21 view .LVU154
 617              	.LBE381:
 618              	.LBE380:
 619              	.LBE379:
 620              	.LBB382:
 621              	.LBI382:
 109:../libDaisy/src/per/adc.h ****     ~AdcHandle() {}
 622              		.loc 14 109 5 is_stmt 1 view .LVU155
 109:../libDaisy/src/per/adc.h ****     ~AdcHandle() {}
 623              		.loc 14 109 5 is_stmt 0 view .LVU156
 624              	.LBE382:
 625              	.LBB383:
 626              	.LBI383:
 627              		.file 17 "../libDaisy/src/per/dac.h"
   1:../libDaisy/src/per/dac.h **** #pragma once
   2:../libDaisy/src/per/dac.h **** #ifndef DSY_DAC_H
   3:../libDaisy/src/per/dac.h **** #define DSY_DAC_H
   4:../libDaisy/src/per/dac.h **** 
   5:../libDaisy/src/per/dac.h **** #include "daisy_core.h"
   6:../libDaisy/src/per/dac.h **** 
   7:../libDaisy/src/per/dac.h **** namespace daisy
   8:../libDaisy/src/per/dac.h **** {
   9:../libDaisy/src/per/dac.h **** /** @brief DAC handle for Built-in DAC Peripheral 
  10:../libDaisy/src/per/dac.h ****  *  @ingroup per_analog
  11:../libDaisy/src/per/dac.h ****  ** 
  12:../libDaisy/src/per/dac.h ****  ** For now only Normal Mode is supported,
ARM GAS  /var/folders/6_/psd2b8g56p7696hhrr4ztjs00000gn/T//ccF5R8G2.s 			page 37


  13:../libDaisy/src/per/dac.h ****  ** Sample and hold mode provides reduced power consumption, but requires a bit more setup.
  14:../libDaisy/src/per/dac.h ****  **
  15:../libDaisy/src/per/dac.h ****  ** For now connecting the DAC through other internal peripherals is also not supported.
  16:../libDaisy/src/per/dac.h ****  **
  17:../libDaisy/src/per/dac.h ****  ** Since the DAC channels have dedicated pins we don't need to pass in a pin config like with
  18:../libDaisy/src/per/dac.h ****  ** other modules. However, it is still important to not try to use the DAC pins for anything else.
  19:../libDaisy/src/per/dac.h ****  ** DAC Channel 1 is on PA4, and DAC Channel 2 is on PA5
  20:../libDaisy/src/per/dac.h ****  ***/
  21:../libDaisy/src/per/dac.h **** class DacHandle
  22:../libDaisy/src/per/dac.h **** {
  23:../libDaisy/src/per/dac.h ****   public:
  24:../libDaisy/src/per/dac.h ****     /** Return Values for the DacHandle class */
  25:../libDaisy/src/per/dac.h ****     enum class Result
  26:../libDaisy/src/per/dac.h ****     {
  27:../libDaisy/src/per/dac.h ****         OK,
  28:../libDaisy/src/per/dac.h ****         ERR,
  29:../libDaisy/src/per/dac.h ****     };
  30:../libDaisy/src/per/dac.h **** 
  31:../libDaisy/src/per/dac.h ****     /** Selects which channel(s) will be configured for use. */
  32:../libDaisy/src/per/dac.h ****     enum class Channel
  33:../libDaisy/src/per/dac.h ****     {
  34:../libDaisy/src/per/dac.h ****         ONE,
  35:../libDaisy/src/per/dac.h ****         TWO,
  36:../libDaisy/src/per/dac.h ****         BOTH,
  37:../libDaisy/src/per/dac.h ****     };
  38:../libDaisy/src/per/dac.h **** 
  39:../libDaisy/src/per/dac.h ****     /** Sets the Mode for the DAC channels.
  40:../libDaisy/src/per/dac.h ****      **
  41:../libDaisy/src/per/dac.h ****      ** Polling mode uses the blocking mode to transmit a single value at a time.
  42:../libDaisy/src/per/dac.h ****      **
  43:../libDaisy/src/per/dac.h ****      ** DMA mode uses a buffer, and periodically transmits it triggering a 
  44:../libDaisy/src/per/dac.h ****      ** callback to fill the buffer when it is ready for more samples.
  45:../libDaisy/src/per/dac.h ****      ***/
  46:../libDaisy/src/per/dac.h ****     enum class Mode
  47:../libDaisy/src/per/dac.h ****     {
  48:../libDaisy/src/per/dac.h ****         POLLING,
  49:../libDaisy/src/per/dac.h ****         DMA,
  50:../libDaisy/src/per/dac.h ****     };
  51:../libDaisy/src/per/dac.h **** 
  52:../libDaisy/src/per/dac.h ****     /** Sets the number of bits per sample transmitted out of the DAC.
  53:../libDaisy/src/per/dac.h ****      ** The output range will be: 0V - VDDA
  54:../libDaisy/src/per/dac.h ****      ** The resolution will be roughly: bitdepth / (VDDA - 0V) 
  55:../libDaisy/src/per/dac.h ****      ***/
  56:../libDaisy/src/per/dac.h ****     enum class BitDepth
  57:../libDaisy/src/per/dac.h ****     {
  58:../libDaisy/src/per/dac.h ****         BITS_8,
  59:../libDaisy/src/per/dac.h ****         BITS_12
  60:../libDaisy/src/per/dac.h ****     };
  61:../libDaisy/src/per/dac.h **** 
  62:../libDaisy/src/per/dac.h ****     /** Sets whether the DAC output is buffered for higher drive ability. */
  63:../libDaisy/src/per/dac.h ****     enum class BufferState
  64:../libDaisy/src/per/dac.h ****     {
  65:../libDaisy/src/per/dac.h ****         ENABLED,
  66:../libDaisy/src/per/dac.h ****         DISABLED,
  67:../libDaisy/src/per/dac.h ****     };
  68:../libDaisy/src/per/dac.h **** 
  69:../libDaisy/src/per/dac.h ****     /** Configuration structure for initializing the DAC structure. */
ARM GAS  /var/folders/6_/psd2b8g56p7696hhrr4ztjs00000gn/T//ccF5R8G2.s 			page 38


  70:../libDaisy/src/per/dac.h ****     struct Config
  71:../libDaisy/src/per/dac.h ****     {
  72:../libDaisy/src/per/dac.h ****         /** Target Samplerate in Hz used to configure the internal 
  73:../libDaisy/src/per/dac.h ****          ** timebase for DMA mode. Does nothing in POLLING mode.
  74:../libDaisy/src/per/dac.h ****          ** If the value is 0 at Init time this will default to 48000Hz 
  75:../libDaisy/src/per/dac.h ****          ** otherwise the driver will attempt meet the target.*/
  76:../libDaisy/src/per/dac.h ****         uint32_t target_samplerate;
  77:../libDaisy/src/per/dac.h **** 
  78:../libDaisy/src/per/dac.h ****         Channel     chn;
  79:../libDaisy/src/per/dac.h ****         Mode        mode;
  80:../libDaisy/src/per/dac.h ****         BitDepth    bitdepth;
  81:../libDaisy/src/per/dac.h ****         BufferState buff_state;
  82:../libDaisy/src/per/dac.h ****     };
  83:../libDaisy/src/per/dac.h **** 
  84:../libDaisy/src/per/dac.h ****     DacHandle() : pimpl_(nullptr) {}
 628              		.loc 17 84 5 is_stmt 1 view .LVU157
 629              	.LBB384:
 630              	.LBB385:
 631              		.loc 17 84 19 is_stmt 0 view .LVU158
 632 000e 2562     		str	r5, [r4, #32]
 633              	.LVL27:
 634              		.loc 17 84 19 view .LVU159
 635              	.LBE385:
 636              	.LBE384:
 637              	.LBE383:
 638              	.LBB386:
 639              	.LBI386:
  40:../libDaisy/src/hid/usb.h **** 
 640              		.loc 13 40 5 is_stmt 1 view .LVU160
  40:../libDaisy/src/hid/usb.h **** 
 641              		.loc 13 40 5 is_stmt 0 view .LVU161
 642              	.LBE386:
 643              	.LBB387:
 644              	.LBI387:
  96:../libDaisy/src/sys/system.h ****     ~System() {}
 645              		.loc 12 96 5 is_stmt 1 view .LVU162
  96:../libDaisy/src/sys/system.h ****     ~System() {}
 646              		.loc 12 96 5 is_stmt 0 view .LVU163
 647              	.LBE387:
 648              	.LBB388:
 649              	.LBI388:
 650              		.file 18 "../libDaisy/src/per/sai.h"
   1:../libDaisy/src/per/sai.h **** #pragma once
   2:../libDaisy/src/per/sai.h **** #ifndef DSY_SAI_H
   3:../libDaisy/src/per/sai.h **** #define DSY_SAI_H
   4:../libDaisy/src/per/sai.h **** 
   5:../libDaisy/src/per/sai.h **** #include "daisy_core.h"
   6:../libDaisy/src/per/sai.h **** 
   7:../libDaisy/src/per/sai.h **** namespace daisy
   8:../libDaisy/src/per/sai.h **** {
   9:../libDaisy/src/per/sai.h **** /** 
  10:../libDaisy/src/per/sai.h ****  * Support for I2S Audio Protocol with different bit-depth, samplerate options
  11:../libDaisy/src/per/sai.h ****  * Allows for master or slave, as well as freedom of selecting direction, 
  12:../libDaisy/src/per/sai.h ****  * and other behavior for each peripheral, and block.
  13:../libDaisy/src/per/sai.h ****  * 
  14:../libDaisy/src/per/sai.h ****  * DMA Transfer commands must use buffers located within non-cached memory or use cache maintenance
  15:../libDaisy/src/per/sai.h ****  * To declare an unitialized global element in the DMA memory section:
ARM GAS  /var/folders/6_/psd2b8g56p7696hhrr4ztjs00000gn/T//ccF5R8G2.s 			page 39


  16:../libDaisy/src/per/sai.h ****  *    int32_t DSY_DMA_BUFFER_SECTOR my_buffer[96];
  17:../libDaisy/src/per/sai.h ****  *
  18:../libDaisy/src/per/sai.h ****  * Callback functions will be called once per half of the buffer. In the above example, 
  19:../libDaisy/src/per/sai.h ****  * the callback function would be called once for every 48 samples.
  20:../libDaisy/src/per/sai.h ****  * 
  21:../libDaisy/src/per/sai.h ****  * Use SAI Handle like this:
  22:../libDaisy/src/per/sai.h ****  * 
  23:../libDaisy/src/per/sai.h ****  *  SaiHandle::Config sai_config;
  24:../libDaisy/src/per/sai.h ****  *  sai_config.periph          = SaiHandle::Config::Peripheral::SAI_1;
  25:../libDaisy/src/per/sai.h ****  *  sai_config.sr              = SaiHandle::Config::SampleRate::SAI_48KHZ;
  26:../libDaisy/src/per/sai.h ****  *  sai_config.bit_depth       = SaiHandle::Config::BitDepth::SAI_24BIT;
  27:../libDaisy/src/per/sai.h ****  *  sai_config.a_sync          = SaiHandle::Config::Sync::MASTER;
  28:../libDaisy/src/per/sai.h ****  *  sai_config.b_sync          = SaiHandle::Config::Sync::SLAVE;
  29:../libDaisy/src/per/sai.h ****  *  sai_config.a_dir           = SaiHandle::Config::Direction::RECEIVE;
  30:../libDaisy/src/per/sai.h ****  *  sai_config.b_dir           = SaiHandle::Config::Direction::TRANSMIT;
  31:../libDaisy/src/per/sai.h ****  *  sai_config.pin_config.fs   = {DSY_GPIOE, 4};
  32:../libDaisy/src/per/sai.h ****  *  sai_config.pin_config.mclk = {DSY_GPIOE, 2};
  33:../libDaisy/src/per/sai.h ****  *  sai_config.pin_config.sck  = {DSY_GPIOE, 5};
  34:../libDaisy/src/per/sai.h ****  *  sai_config.pin_config.sa   = {DSY_GPIOE, 6};
  35:../libDaisy/src/per/sai.h ****  *  sai_config.pin_config.sb   = {DSY_GPIOE, 3};
  36:../libDaisy/src/per/sai.h ****  *  // Then Initialize
  37:../libDaisy/src/per/sai.h ****  *  SaiHandle sai;
  38:../libDaisy/src/per/sai.h ****  *  sai.Init(sai_config);
  39:../libDaisy/src/per/sai.h ****  *  // Now you can use it:
  40:../libDaisy/src/per/sai.h ****  *  sai.StartDma(. . .);
  41:../libDaisy/src/per/sai.h ****  */
  42:../libDaisy/src/per/sai.h **** class SaiHandle
  43:../libDaisy/src/per/sai.h **** {
  44:../libDaisy/src/per/sai.h ****   public:
  45:../libDaisy/src/per/sai.h ****     /** Contains settings for initialising an SAI Interface */
  46:../libDaisy/src/per/sai.h ****     struct Config
  47:../libDaisy/src/per/sai.h ****     {
  48:../libDaisy/src/per/sai.h ****         /** Specifies the internal peripheral to use (mapped to different hardware pins) */
  49:../libDaisy/src/per/sai.h ****         enum class Peripheral
  50:../libDaisy/src/per/sai.h ****         {
  51:../libDaisy/src/per/sai.h ****             SAI_1,
  52:../libDaisy/src/per/sai.h ****             SAI_2,
  53:../libDaisy/src/per/sai.h ****         };
  54:../libDaisy/src/per/sai.h **** 
  55:../libDaisy/src/per/sai.h ****         /** Rate at which samples will be streaming to/from the device. */
  56:../libDaisy/src/per/sai.h ****         enum class SampleRate
  57:../libDaisy/src/per/sai.h ****         {
  58:../libDaisy/src/per/sai.h ****             SAI_8KHZ,
  59:../libDaisy/src/per/sai.h ****             SAI_16KHZ,
  60:../libDaisy/src/per/sai.h ****             SAI_32KHZ,
  61:../libDaisy/src/per/sai.h ****             SAI_48KHZ,
  62:../libDaisy/src/per/sai.h ****             SAI_96KHZ,
  63:../libDaisy/src/per/sai.h ****         };
  64:../libDaisy/src/per/sai.h **** 
  65:../libDaisy/src/per/sai.h ****         /** Bit Depth that the hardware expects to be transferred to/from the device. */
  66:../libDaisy/src/per/sai.h ****         enum class BitDepth
  67:../libDaisy/src/per/sai.h ****         {
  68:../libDaisy/src/per/sai.h ****             SAI_16BIT,
  69:../libDaisy/src/per/sai.h ****             SAI_24BIT,
  70:../libDaisy/src/per/sai.h ****             SAI_32BIT,
  71:../libDaisy/src/per/sai.h ****         };
  72:../libDaisy/src/per/sai.h **** 
ARM GAS  /var/folders/6_/psd2b8g56p7696hhrr4ztjs00000gn/T//ccF5R8G2.s 			page 40


  73:../libDaisy/src/per/sai.h ****         /** Specifies whether a particular block is the master or the slave 
  74:../libDaisy/src/per/sai.h ****          ** If both are set to slave, no MCLK signal will be used, and it is
  75:../libDaisy/src/per/sai.h ****          ** expected that the codec will have its own xtal.
  76:../libDaisy/src/per/sai.h ****          */
  77:../libDaisy/src/per/sai.h ****         enum class Sync
  78:../libDaisy/src/per/sai.h ****         {
  79:../libDaisy/src/per/sai.h ****             MASTER,
  80:../libDaisy/src/per/sai.h ****             SLAVE,
  81:../libDaisy/src/per/sai.h ****         };
  82:../libDaisy/src/per/sai.h **** 
  83:../libDaisy/src/per/sai.h ****         /** Specifies the direction for each peripheral block. */
  84:../libDaisy/src/per/sai.h ****         enum class Direction
  85:../libDaisy/src/per/sai.h ****         {
  86:../libDaisy/src/per/sai.h ****             TRANSMIT,
  87:../libDaisy/src/per/sai.h ****             RECEIVE,
  88:../libDaisy/src/per/sai.h ****         };
  89:../libDaisy/src/per/sai.h **** 
  90:../libDaisy/src/per/sai.h ****         Peripheral periph;
  91:../libDaisy/src/per/sai.h ****         struct
  92:../libDaisy/src/per/sai.h ****         {
  93:../libDaisy/src/per/sai.h ****             dsy_gpio_pin mclk, fs, sck, sa, sb;
  94:../libDaisy/src/per/sai.h ****         } pin_config;
  95:../libDaisy/src/per/sai.h ****         SampleRate sr;
  96:../libDaisy/src/per/sai.h ****         BitDepth   bit_depth;
  97:../libDaisy/src/per/sai.h ****         Sync       a_sync, b_sync;
  98:../libDaisy/src/per/sai.h ****         Direction  a_dir, b_dir;
  99:../libDaisy/src/per/sai.h ****     };
 100:../libDaisy/src/per/sai.h **** 
 101:../libDaisy/src/per/sai.h ****     /** Return values for SAI functions */
 102:../libDaisy/src/per/sai.h ****     enum class Result
 103:../libDaisy/src/per/sai.h ****     {
 104:../libDaisy/src/per/sai.h ****         OK,
 105:../libDaisy/src/per/sai.h ****         ERR,
 106:../libDaisy/src/per/sai.h ****     };
 107:../libDaisy/src/per/sai.h **** 
 108:../libDaisy/src/per/sai.h ****     SaiHandle() : pimpl_(nullptr) {}
 651              		.loc 18 108 5 is_stmt 1 view .LVU164
 652              	.LBB389:
 653              	.LBB390:
 654              		.loc 18 108 19 is_stmt 0 view .LVU165
 655 0010 E563     		str	r5, [r4, #60]
 656              	.LVL28:
 657              		.loc 18 108 19 view .LVU166
 658              	.LBE390:
 659              	.LBE389:
 660              	.LBE388:
 661              	.LBE392:
 662              	.LBE436:
 663              	.LBB437:
 664              	.LBI437:
  20:../libDaisy/src/hid/encoder.h ****     ~Encoder() {}
 665              		.loc 10 20 5 is_stmt 1 view .LVU167
 666              	.LBB438:
 667              	.LBB439:
 668              	.LBI439:
  41:../libDaisy/src/hid/switch.h ****     ~Switch() {}
 669              		.loc 8 41 5 view .LVU168
ARM GAS  /var/folders/6_/psd2b8g56p7696hhrr4ztjs00000gn/T//ccF5R8G2.s 			page 41


  41:../libDaisy/src/hid/switch.h ****     ~Switch() {}
 670              		.loc 8 41 5 is_stmt 0 view .LVU169
 671              	.LBE439:
 672              	.LBE438:
 673              	.LBE437:
 674              	.LBB440:
 675              	.LBI440:
  21:../libDaisy/src/hid/ctrl.h ****     /** destructor */
 676              		.loc 9 21 5 is_stmt 1 view .LVU170
  21:../libDaisy/src/hid/ctrl.h ****     /** destructor */
 677              		.loc 9 21 5 is_stmt 0 view .LVU171
 678              	.LBE440:
 679              	.LBB441:
 680              	.LBI441:
  21:../libDaisy/src/hid/ctrl.h ****     /** destructor */
 681              		.loc 9 21 5 is_stmt 1 view .LVU172
  21:../libDaisy/src/hid/ctrl.h ****     /** destructor */
 682              		.loc 9 21 5 is_stmt 0 view .LVU173
 683              	.LBE441:
 684              	.LBB442:
 685              	.LBI442:
  41:../libDaisy/src/hid/switch.h ****     ~Switch() {}
 686              		.loc 8 41 5 is_stmt 1 view .LVU174
  41:../libDaisy/src/hid/switch.h ****     ~Switch() {}
 687              		.loc 8 41 5 is_stmt 0 view .LVU175
 688              	.LBE442:
 689              	.LBB443:
 690              	.LBI443:
  41:../libDaisy/src/hid/switch.h ****     ~Switch() {}
 691              		.loc 8 41 5 is_stmt 1 view .LVU176
  41:../libDaisy/src/hid/switch.h ****     ~Switch() {}
 692              		.loc 8 41 5 is_stmt 0 view .LVU177
 693              	.LBE443:
 694              	.LBB444:
 695              	.LBI444:
  17:../libDaisy/src/hid/rgb_led.h ****     ~RgbLed() {}
 696              		.loc 6 17 5 is_stmt 1 view .LVU178
 697              	.LBB445:
 698              	.LBB446:
 699              	.LBI446:
  24:../libDaisy/src/hid/led.h ****     ~Led() {}
 700              		.loc 7 24 5 view .LVU179
  24:../libDaisy/src/hid/led.h ****     ~Led() {}
 701              		.loc 7 24 5 is_stmt 0 view .LVU180
 702              	.LBE446:
 703              	.LBB447:
 704              	.LBI447:
  24:../libDaisy/src/hid/led.h ****     ~Led() {}
 705              		.loc 7 24 5 is_stmt 1 view .LVU181
  24:../libDaisy/src/hid/led.h ****     ~Led() {}
 706              		.loc 7 24 5 is_stmt 0 view .LVU182
 707              	.LBE447:
 708              	.LBB448:
 709              	.LBI448:
  24:../libDaisy/src/hid/led.h ****     ~Led() {}
 710              		.loc 7 24 5 is_stmt 1 view .LVU183
  24:../libDaisy/src/hid/led.h ****     ~Led() {}
ARM GAS  /var/folders/6_/psd2b8g56p7696hhrr4ztjs00000gn/T//ccF5R8G2.s 			page 42


 711              		.loc 7 24 5 is_stmt 0 view .LVU184
 712              	.LBE448:
 713              	.LBE445:
 714              	.LBE444:
 715              	.LBB449:
 716              	.LBI449:
  17:../libDaisy/src/hid/rgb_led.h ****     ~RgbLed() {}
 717              		.loc 6 17 5 is_stmt 1 view .LVU185
 718              	.LBB450:
 719              	.LBB451:
 720              	.LBI451:
  24:../libDaisy/src/hid/led.h ****     ~Led() {}
 721              		.loc 7 24 5 view .LVU186
  24:../libDaisy/src/hid/led.h ****     ~Led() {}
 722              		.loc 7 24 5 is_stmt 0 view .LVU187
 723              	.LBE451:
 724              	.LBB452:
 725              	.LBI452:
  24:../libDaisy/src/hid/led.h ****     ~Led() {}
 726              		.loc 7 24 5 is_stmt 1 view .LVU188
  24:../libDaisy/src/hid/led.h ****     ~Led() {}
 727              		.loc 7 24 5 is_stmt 0 view .LVU189
 728              	.LBE452:
 729              	.LBB453:
 730              	.LBI453:
  24:../libDaisy/src/hid/led.h ****     ~Led() {}
 731              		.loc 7 24 5 is_stmt 1 view .LVU190
  24:../libDaisy/src/hid/led.h ****     ~Led() {}
 732              		.loc 7 24 5 is_stmt 0 view .LVU191
 733              	.LBE453:
 734              	.LBE450:
 735              	.LBE449:
 736              	.LBB454:
 737              	.LBI394:
 155:../libDaisy/src/hid/midi.h ****     ~MidiHandler() {}
 738              		.loc 3 155 5 is_stmt 1 view .LVU192
 739              	.LBB433:
 740              	.LBB399:
 741              	.LBI396:
 742              		.loc 3 158 12 view .LVU193
 743              	.LBB398:
 744 0012 FFF7FEFF 		bl	_ZN5daisy17MidiUartTransport6ConfigC1Ev
 745              	.LVL29:
 746              		.loc 3 158 12 is_stmt 0 view .LVU194
 747              	.LBE398:
 748              	.LBE399:
 749              	.LBB400:
 750              	.LBI400:
  31:../libDaisy/src/hid/midi.h ****     ~MidiUartTransport() {}
 751              		.loc 3 31 5 is_stmt 1 view .LVU195
 752              	.LBB401:
 753              	.LBB402:
 754              	.LBI402:
 755              		.file 19 "../libDaisy/src/per/uart.h"
   1:../libDaisy/src/per/uart.h **** /* 
   2:../libDaisy/src/per/uart.h **** TODO
   3:../libDaisy/src/per/uart.h **** - Overflow handling, etc. for Rx Queue.
ARM GAS  /var/folders/6_/psd2b8g56p7696hhrr4ztjs00000gn/T//ccF5R8G2.s 			page 43


   4:../libDaisy/src/per/uart.h **** */
   5:../libDaisy/src/per/uart.h **** 
   6:../libDaisy/src/per/uart.h **** #pragma once
   7:../libDaisy/src/per/uart.h **** #ifndef DSY_UART_H
   8:../libDaisy/src/per/uart.h **** #define DSY_UART_H /**< macro */
   9:../libDaisy/src/per/uart.h **** #include "daisy_core.h"
  10:../libDaisy/src/per/uart.h **** 
  11:../libDaisy/src/per/uart.h **** 
  12:../libDaisy/src/per/uart.h **** namespace daisy
  13:../libDaisy/src/per/uart.h **** {
  14:../libDaisy/src/per/uart.h **** /** @addtogroup serial
  15:../libDaisy/src/per/uart.h ****     @{
  16:../libDaisy/src/per/uart.h ****     */
  17:../libDaisy/src/per/uart.h **** 
  18:../libDaisy/src/per/uart.h **** /** 
  19:../libDaisy/src/per/uart.h ****     Uart Peripheral
  20:../libDaisy/src/per/uart.h ****     @author shensley
  21:../libDaisy/src/per/uart.h ****     @date March 2020
  22:../libDaisy/src/per/uart.h ****     */
  23:../libDaisy/src/per/uart.h **** class UartHandler
  24:../libDaisy/src/per/uart.h **** {
  25:../libDaisy/src/per/uart.h ****   public:
  26:../libDaisy/src/per/uart.h ****     struct Config
  27:../libDaisy/src/per/uart.h ****     {
  28:../libDaisy/src/per/uart.h ****         enum class Peripheral
  29:../libDaisy/src/per/uart.h ****         {
  30:../libDaisy/src/per/uart.h ****             USART_1,
  31:../libDaisy/src/per/uart.h ****             USART_2,
  32:../libDaisy/src/per/uart.h ****             USART_3,
  33:../libDaisy/src/per/uart.h ****             UART_4,
  34:../libDaisy/src/per/uart.h ****             UART_5,
  35:../libDaisy/src/per/uart.h ****             USART_6,
  36:../libDaisy/src/per/uart.h ****             UART_7,
  37:../libDaisy/src/per/uart.h ****             UART_8,
  38:../libDaisy/src/per/uart.h ****             LPUART_1,
  39:../libDaisy/src/per/uart.h ****         };
  40:../libDaisy/src/per/uart.h **** 
  41:../libDaisy/src/per/uart.h ****         enum class StopBits
  42:../libDaisy/src/per/uart.h ****         {
  43:../libDaisy/src/per/uart.h ****             BITS_0_5,
  44:../libDaisy/src/per/uart.h ****             BITS_1,
  45:../libDaisy/src/per/uart.h ****             BITS_1_5,
  46:../libDaisy/src/per/uart.h ****             BITS_2,
  47:../libDaisy/src/per/uart.h ****         };
  48:../libDaisy/src/per/uart.h **** 
  49:../libDaisy/src/per/uart.h ****         enum class Parity
  50:../libDaisy/src/per/uart.h ****         {
  51:../libDaisy/src/per/uart.h ****             NONE,
  52:../libDaisy/src/per/uart.h ****             EVEN,
  53:../libDaisy/src/per/uart.h ****             ODD,
  54:../libDaisy/src/per/uart.h ****         };
  55:../libDaisy/src/per/uart.h **** 
  56:../libDaisy/src/per/uart.h ****         enum class Mode
  57:../libDaisy/src/per/uart.h ****         {
  58:../libDaisy/src/per/uart.h ****             RX,
  59:../libDaisy/src/per/uart.h ****             TX,
  60:../libDaisy/src/per/uart.h ****             TX_RX,
ARM GAS  /var/folders/6_/psd2b8g56p7696hhrr4ztjs00000gn/T//ccF5R8G2.s 			page 44


  61:../libDaisy/src/per/uart.h ****         };
  62:../libDaisy/src/per/uart.h **** 
  63:../libDaisy/src/per/uart.h ****         enum class WordLength
  64:../libDaisy/src/per/uart.h ****         {
  65:../libDaisy/src/per/uart.h ****             BITS_7,
  66:../libDaisy/src/per/uart.h ****             BITS_8,
  67:../libDaisy/src/per/uart.h ****             BITS_9,
  68:../libDaisy/src/per/uart.h ****         };
  69:../libDaisy/src/per/uart.h **** 
  70:../libDaisy/src/per/uart.h ****         struct
  71:../libDaisy/src/per/uart.h ****         {
  72:../libDaisy/src/per/uart.h ****             dsy_gpio_pin tx; /**< & */
  73:../libDaisy/src/per/uart.h ****             dsy_gpio_pin rx; /**< & */
  74:../libDaisy/src/per/uart.h ****         } pin_config;        /**< & */
  75:../libDaisy/src/per/uart.h **** 
  76:../libDaisy/src/per/uart.h ****         Config()
  77:../libDaisy/src/per/uart.h ****         {
  78:../libDaisy/src/per/uart.h ****             // user must init periph, pin_config, and mode
  79:../libDaisy/src/per/uart.h ****             stopbits   = StopBits::BITS_1;
  80:../libDaisy/src/per/uart.h ****             parity     = Parity::NONE;
  81:../libDaisy/src/per/uart.h ****             wordlength = WordLength::BITS_8;
  82:../libDaisy/src/per/uart.h ****             baudrate   = 31250;
  83:../libDaisy/src/per/uart.h ****         }
  84:../libDaisy/src/per/uart.h **** 
  85:../libDaisy/src/per/uart.h ****         Peripheral periph;
  86:../libDaisy/src/per/uart.h ****         StopBits   stopbits;
  87:../libDaisy/src/per/uart.h ****         Parity     parity;
  88:../libDaisy/src/per/uart.h ****         Mode       mode;
  89:../libDaisy/src/per/uart.h ****         WordLength wordlength;
  90:../libDaisy/src/per/uart.h ****         uint32_t   baudrate;
  91:../libDaisy/src/per/uart.h ****     };
  92:../libDaisy/src/per/uart.h **** 
  93:../libDaisy/src/per/uart.h **** 
  94:../libDaisy/src/per/uart.h ****     UartHandler() : pimpl_(nullptr) {}
 756              		.loc 19 94 5 view .LVU196
 757              	.LBE402:
 758              	.LBE401:
 759              	.LBE400:
 760              	.LBB407:
 761              	.LBB408:
 762              	.LBB409:
  18:../libDaisy/src/hid/midi_parser.h ****     ~MidiParser() {}
 763              		.loc 5 18 17 is_stmt 0 view .LVU197
 764 0016 1149     		ldr	r1, .L31+4
 765 0018 0722     		movs	r2, #7
 766              	.LBE409:
 767              	.LBE408:
 768              	.LBE407:
 769              	.LBE433:
 770              	.LBE454:
 771              	.LBE457:
 772              	.LBE460:
 773              	.LBB461:
 774              	.LBB462:
 775              		.file 20 "FeatureExtractor.h"
   1:FeatureExtractor.h **** #pragma once
   2:FeatureExtractor.h **** 
ARM GAS  /var/folders/6_/psd2b8g56p7696hhrr4ztjs00000gn/T//ccF5R8G2.s 			page 45


   3:FeatureExtractor.h **** #include <cstddef>
   4:FeatureExtractor.h **** #include <cmath>
   5:FeatureExtractor.h **** #include <cstring>
   6:FeatureExtractor.h **** #include "arm_math.h"
   7:FeatureExtractor.h **** 
   8:FeatureExtractor.h **** struct AudioFeatures
   9:FeatureExtractor.h **** {
  10:FeatureExtractor.h ****     float rms;
  11:FeatureExtractor.h ****     float peak;
  12:FeatureExtractor.h ****     float zcr;
  13:FeatureExtractor.h ****     float spectralCentroid;
  14:FeatureExtractor.h ****     float spectralFlux;
  15:FeatureExtractor.h **** };
  16:FeatureExtractor.h **** 
  17:FeatureExtractor.h **** class FeatureExtractor
 776              		.loc 20 17 7 view .LVU198
 777 001a 114B     		ldr	r3, .L31+8
 778              	.LBE462:
 779              	.LBE461:
 780              	.LBB465:
 781              	.LBB458:
 782              	.LBB455:
 783              	.LBB434:
 784              	.LBB414:
 785              	.LBB412:
 786              	.LBB410:
  18:../libDaisy/src/hid/midi_parser.h ****     ~MidiParser() {}
 787              		.loc 5 18 17 view .LVU199
 788 001c C4F83912 		str	r1, [r4, #569]	@ unaligned
 789              	.LBE410:
 790              	.LBE412:
 791              	.LBE414:
 792              	.LBB415:
 793              	.LBB416:
 794              	.LBB417:
 795              	.LBB418:
 796              	.LBB419:
  15:../libDaisy/src/util/FIFO.h ****     {
 797              		.loc 4 15 7 view .LVU200
 798 0020 04F51471 		add	r1, r4, #592
 799              	.LBE419:
 800              	.LBE418:
 801              	.LBE417:
 802              	.LBE416:
 803              	.LBE415:
 804              	.LBB428:
 805              	.LBB413:
 806              	.LBB411:
  18:../libDaisy/src/hid/midi_parser.h ****     ~MidiParser() {}
 807              		.loc 5 18 17 view .LVU201
 808 0024 84F83D22 		strb	r2, [r4, #573]
 809              	.LBE411:
 810              	.LBE413:
 811              	.LBE428:
 812              	.LBB429:
 813              	.LBB426:
 814              	.LBB424:
ARM GAS  /var/folders/6_/psd2b8g56p7696hhrr4ztjs00000gn/T//ccF5R8G2.s 			page 46


 815              	.LBB422:
 816              	.LBB420:
  15:../libDaisy/src/util/FIFO.h ****     {
 817              		.loc 4 15 24 view .LVU202
 818 0028 40F20112 		movw	r2, #257
  15:../libDaisy/src/util/FIFO.h ****     {
 819              		.loc 4 15 7 view .LVU203
 820 002c C4F84012 		str	r1, [r4, #576]
  15:../libDaisy/src/util/FIFO.h ****     {
 821              		.loc 4 15 24 view .LVU204
 822 0030 C4F84422 		str	r2, [r4, #580]
 823              	.LBE420:
 824              	.LBE422:
 825              	.LBE424:
 826              	.LBE426:
 827              	.LBE429:
 828              	.LBE434:
 829              	.LBE455:
 830              	.LBE458:
 831              	.LBE465:
 832              	.LBB466:
 833              	.LBB463:
 834              		.loc 20 17 7 view .LVU205
 835 0034 03F22442 		addw	r2, r3, #1060
 836 0038 0A49     		ldr	r1, .L31+12
 837              	.LBE463:
 838              	.LBE466:
 839              	.LBB467:
 840              	.LBB459:
 841              	.LBB456:
 842              	.LBB435:
 843              	.LBB430:
 844              	.LBB406:
 845              	.LBB405:
 846              	.LBB403:
 847              	.LBB404:
 848              		.loc 19 94 21 view .LVU206
 849 003a C4F89051 		str	r5, [r4, #400]
 850              	.LVL30:
 851              		.loc 19 94 21 view .LVU207
 852              	.LBE404:
 853              	.LBE403:
 854              	.LBE405:
 855              	.LBE406:
 856              	.LBE430:
 857              	.LBB431:
 858              	.LBI407:
  18:../libDaisy/src/hid/midi_parser.h ****     ~MidiParser() {}
 859              		.loc 5 18 5 is_stmt 1 view .LVU208
  18:../libDaisy/src/hid/midi_parser.h ****     ~MidiParser() {}
 860              		.loc 5 18 5 is_stmt 0 view .LVU209
 861              	.LBE431:
 862              	.LBB432:
 863              	.LBI415:
 299:../libDaisy/src/util/FIFO.h **** {
 300:../libDaisy/src/util/FIFO.h ****   public:
 301:../libDaisy/src/util/FIFO.h ****     /** Creates an empty FIFO */
ARM GAS  /var/folders/6_/psd2b8g56p7696hhrr4ztjs00000gn/T//ccF5R8G2.s 			page 47


 302:../libDaisy/src/util/FIFO.h ****     FIFO() : FIFOBase<T>(buffer_, capacity + 1) {}
 864              		.loc 4 302 5 is_stmt 1 view .LVU210
 865              	.LBB427:
 866              	.LBB425:
 867              	.LBI417:
  14:../libDaisy/src/util/FIFO.h ****     : buffer_(buffer), bufferSize_(bufferSize), bufferIn_(0), bufferOut_(0)
 868              		.loc 4 14 5 view .LVU211
 869              	.LBB423:
 870              	.LBB421:
  15:../libDaisy/src/util/FIFO.h ****     {
 871              		.loc 4 15 49 is_stmt 0 view .LVU212
 872 003e C4F84852 		str	r5, [r4, #584]
  15:../libDaisy/src/util/FIFO.h ****     {
 873              		.loc 4 15 63 view .LVU213
 874 0042 C4F84C52 		str	r5, [r4, #588]
 875              	.LVL31:
  15:../libDaisy/src/util/FIFO.h ****     {
 876              		.loc 4 15 63 view .LVU214
 877              	.LBE421:
 878              	.LBE423:
 879              	.LBE425:
 880              	.LBE427:
 881              	.LBE432:
 882              	.LBE435:
 883              	.LBE456:
 884              	.LBE459:
 885              	.LBE467:
 886              	.LBB468:
 887              	.LBI461:
 888              		.loc 20 17 7 is_stmt 1 view .LVU215
 889              	.LBB464:
 890 0046 C3F81854 		str	r5, [r3, #1048]
 891 004a C3F81C54 		str	r5, [r3, #1052]
 892 004e C3F82054 		str	r5, [r3, #1056]
 893 0052 1160     		str	r1, [r2]	@ float
 894              	.LVL32:
 895              		.loc 20 17 7 is_stmt 0 view .LVU216
 896              	.LBE464:
 897              	.LBE468:
 898              	.LBE469:
 899              	.LBE470:
 900              		.loc 1 65 1 view .LVU217
 901 0054 38BD     		pop	{r3, r4, r5, pc}
 902              	.L32:
 903 0056 00BF     		.align	2
 904              	.L31:
 905 0058 00000000 		.word	hw
 906 005c 80707F0F 		.word	260010112
 907 0060 00200000 		.word	extractor+8192
 908 0064 00803B47 		.word	1195081728
 909              		.cfi_endproc
 910              	.LFE5386:
 912              		.section	.init_array,"aw",%init_array
 913              		.align	2
 914 0000 00000000 		.word	_GLOBAL__sub_I_newFrameReady(target1)
 915              		.global	features
 916              		.section	.bss.features,"aw",%nobits
ARM GAS  /var/folders/6_/psd2b8g56p7696hhrr4ztjs00000gn/T//ccF5R8G2.s 			page 48


 917              		.align	2
 920              	features:
 921 0000 00000000 		.space	20
 921      00000000 
 921      00000000 
 921      00000000 
 921      00000000 
 922              		.global	extractor
 923              		.section	.bss.extractor,"aw",%nobits
 924              		.align	2
 927              	extractor:
 928 0000 00000000 		.space	9256
 928      00000000 
 928      00000000 
 928      00000000 
 928      00000000 
 929              		.global	hw
 930              		.section	.bss.hw,"aw",%nobits
 931              		.align	2
 934              	hw:
 935 0000 00000000 		.space	37600
 935      00000000 
 935      00000000 
 935      00000000 
 935      00000000 
 936              		.global	latestFeatures
 937              		.section	.bss.latestFeatures,"aw",%nobits
 938              		.align	2
 941              	latestFeatures:
 942 0000 00000000 		.space	20
 942      00000000 
 942      00000000 
 942      00000000 
 942      00000000 
 943              		.global	newFrameReady
 944              		.section	.bss.newFrameReady,"aw",%nobits
 947              	newFrameReady:
 948 0000 00       		.space	1
 949              		.text
 950              	.Letext0:
 951              		.file 21 "/Applications/ArmGNUToolchain/15.2.rel1/arm-none-eabi/arm-none-eabi/include/machine/_def
 952              		.file 22 "/Applications/ArmGNUToolchain/15.2.rel1/arm-none-eabi/arm-none-eabi/include/sys/_stdint.
 953              		.file 23 "/Applications/ArmGNUToolchain/15.2.rel1/arm-none-eabi/arm-none-eabi/include/stdint.h"
 954              		.file 24 "/Applications/ArmGNUToolchain/15.2.rel1/arm-none-eabi/lib/gcc/arm-none-eabi/15.2.1/inclu
 955              		.file 25 "/Applications/ArmGNUToolchain/15.2.rel1/arm-none-eabi/arm-none-eabi/include/c++/15.2.1/c
 956              		.file 26 "/Applications/ArmGNUToolchain/15.2.rel1/arm-none-eabi/arm-none-eabi/include/c++/15.2.1/b
 957              		.file 27 "/Applications/ArmGNUToolchain/15.2.rel1/arm-none-eabi/arm-none-eabi/include/c++/15.2.1/c
 958              		.file 28 "/Applications/ArmGNUToolchain/15.2.rel1/arm-none-eabi/arm-none-eabi/include/c++/15.2.1/c
 959              		.file 29 "/Applications/ArmGNUToolchain/15.2.rel1/arm-none-eabi/arm-none-eabi/include/c++/15.2.1/a
 960              		.file 30 "/Applications/ArmGNUToolchain/15.2.rel1/arm-none-eabi/arm-none-eabi/include/c++/15.2.1/t
 961              		.file 31 "/Applications/ArmGNUToolchain/15.2.rel1/arm-none-eabi/arm-none-eabi/include/c++/15.2.1/b
 962              		.file 32 "/Applications/ArmGNUToolchain/15.2.rel1/arm-none-eabi/arm-none-eabi/include/c++/15.2.1/b
 963              		.file 33 "/Applications/ArmGNUToolchain/15.2.rel1/arm-none-eabi/arm-none-eabi/include/c++/15.2.1/d
 964              		.file 34 "/Applications/ArmGNUToolchain/15.2.rel1/arm-none-eabi/arm-none-eabi/include/c++/15.2.1/i
 965              		.file 35 "/Applications/ArmGNUToolchain/15.2.rel1/arm-none-eabi/arm-none-eabi/include/c++/15.2.1/c
 966              		.file 36 "/Applications/ArmGNUToolchain/15.2.rel1/arm-none-eabi/arm-none-eabi/include/c++/15.2.1/c
 967              		.file 37 "/Applications/ArmGNUToolchain/15.2.rel1/arm-none-eabi/arm-none-eabi/include/c++/15.2.1/c
ARM GAS  /var/folders/6_/psd2b8g56p7696hhrr4ztjs00000gn/T//ccF5R8G2.s 			page 49


 968              		.file 38 "/Applications/ArmGNUToolchain/15.2.rel1/arm-none-eabi/arm-none-eabi/include/c++/15.2.1/c
 969              		.file 39 "/Applications/ArmGNUToolchain/15.2.rel1/arm-none-eabi/arm-none-eabi/include/c++/15.2.1/c
 970              		.file 40 "/Applications/ArmGNUToolchain/15.2.rel1/arm-none-eabi/arm-none-eabi/include/c++/15.2.1/c
 971              		.file 41 "/Applications/ArmGNUToolchain/15.2.rel1/arm-none-eabi/arm-none-eabi/include/c++/15.2.1/b
 972              		.file 42 "/Applications/ArmGNUToolchain/15.2.rel1/arm-none-eabi/arm-none-eabi/include/sys/_types.h
 973              		.file 43 "/Applications/ArmGNUToolchain/15.2.rel1/arm-none-eabi/arm-none-eabi/include/sys/reent.h"
 974              		.file 44 "/Applications/ArmGNUToolchain/15.2.rel1/arm-none-eabi/arm-none-eabi/include/sys/lock.h"
 975              		.file 45 "/Applications/ArmGNUToolchain/15.2.rel1/arm-none-eabi/arm-none-eabi/include/math.h"
 976              		.file 46 "/Applications/ArmGNUToolchain/15.2.rel1/arm-none-eabi/arm-none-eabi/include/stdlib.h"
 977              		.file 47 "/Applications/ArmGNUToolchain/15.2.rel1/arm-none-eabi/arm-none-eabi/include/c++/15.2.1/m
 978              		.file 48 "/Applications/ArmGNUToolchain/15.2.rel1/arm-none-eabi/arm-none-eabi/include/c++/15.2.1/s
 979              		.file 49 "../libDaisy/src/daisy_core.h"
 980              		.file 50 "../libDaisy/src/hid/MidiEvent.h"
 981              		.file 51 "../libDaisy/src/hid/logger_impl.h"
 982              		.file 52 "../libDaisy/src/util/wav_format.h"
 983              		.file 53 "../libDaisy/src/util/color.h"
 984              		.file 54 "../libDaisy/src/dev/max11300.h"
 985              		.file 55 "../libDaisy/src/hid/logger.h"
 986              		.file 56 "../libDaisy/src/per/gpio.h"
 987              		.file 57 "../libDaisy/src/dev/sdram.h"
 988              		.file 58 "/Applications/ArmGNUToolchain/15.2.rel1/arm-none-eabi/arm-none-eabi/include/c++/15.2.1/b
 989              		.file 59 "/Applications/ArmGNUToolchain/15.2.rel1/arm-none-eabi/lib/gcc/arm-none-eabi/15.2.1/inclu
 990              		.file 60 "/Applications/ArmGNUToolchain/15.2.rel1/arm-none-eabi/arm-none-eabi/include/stdio.h"
 991              		.file 61 "/Applications/ArmGNUToolchain/15.2.rel1/arm-none-eabi/arm-none-eabi/include/string.h"
 992              		.file 62 "../DaisySP/Source/Control/adenv.h"
 993              		.file 63 "../DaisySP/Source/Utility/dsp.h"
 994              		.file 64 "/Applications/ArmGNUToolchain/15.2.rel1/arm-none-eabi/arm-none-eabi/include/wchar.h"
 995              		.file 65 "/Applications/ArmGNUToolchain/15.2.rel1/arm-none-eabi/arm-none-eabi/include/locale.h"
 996              		.file 66 "../libDaisy/Drivers/CMSIS/DSP/Include/arm_math.h"
 997              		.file 67 "<built-in>"
 998              		.file 68 "../libDaisy/src/dev/sr_595.h"
ARM GAS  /var/folders/6_/psd2b8g56p7696hhrr4ztjs00000gn/T//ccF5R8G2.s 			page 50

